ARM GAS  /var/folders/kr/g9ry2bg56g773797gdtkvvkw0000gn/T//ccqSoQTt.s 			page 1


   1              		.cpu cortex-m0
   2              		.arch armv6s-m
   3              		.fpu softvfp
   4              		.eabi_attribute 20, 1
   5              		.eabi_attribute 21, 1
   6              		.eabi_attribute 23, 3
   7              		.eabi_attribute 24, 1
   8              		.eabi_attribute 25, 1
   9              		.eabi_attribute 26, 1
  10              		.eabi_attribute 30, 1
  11              		.eabi_attribute 34, 0
  12              		.eabi_attribute 18, 4
  13              		.file	"main.c"
  14              		.text
  15              	.Ltext0:
  16              		.cfi_sections	.debug_frame
  17              		.file 1 "Src/main.c"
  18              		.section	.text.EXTI0_1_IRQHandler,"ax",%progbits
  19              		.align	1
  20              		.global	EXTI0_1_IRQHandler
  21              		.syntax unified
  22              		.code	16
  23              		.thumb_func
  25              	EXTI0_1_IRQHandler:
  26              	.LFB40:
   1:Src/main.c    **** /**
   2:Src/main.c    ****   *
   3:Src/main.c    ****   *
   4:Src/main.c    ****   *
   5:Src/main.c    ****   ******************************************************************************
   6:Src/main.c    ****   * File Name          : main.c
   7:Src/main.c    ****   * Description        : Main program body
   8:Src/main.c    ****   ******************************************************************************
   9:Src/main.c    ****   ** This notice applies to any and all portions of this file
  10:Src/main.c    ****   * that are not between comment pairs USER CODE BEGIN and
  11:Src/main.c    ****   * USER CODE END. Other portions of this file, whether
  12:Src/main.c    ****   * inserted by the user or by software development tools
  13:Src/main.c    ****   * are owned by their respective copyright owners.
  14:Src/main.c    ****   *
  15:Src/main.c    ****   * COPYRIGHT(c) 2018 STMicroelectronics
  16:Src/main.c    ****   *
  17:Src/main.c    ****   * Redistribution and use in source and binary forms, with or without modification,
  18:Src/main.c    ****   * are permitted provided that the following conditions are met:
  19:Src/main.c    ****   *   1. Redistributions of source code must retain the above copyright notice,
  20:Src/main.c    ****   *      this list of conditions and the following disclaimer.
  21:Src/main.c    ****   *   2. Redistributions in binary form must reproduce the above copyright notice,
  22:Src/main.c    ****   *      this list of conditions and the following disclaimer in the documentation
  23:Src/main.c    ****   *      and/or other materials provided with the distribution.
  24:Src/main.c    ****   *   3. Neither the name of STMicroelectronics nor the names of its contributors
  25:Src/main.c    ****   *      may be used to endorse or promote products derived from this software
  26:Src/main.c    ****   *      without specific prior written permission.
  27:Src/main.c    ****   *
  28:Src/main.c    ****   * THIS SOFTWARE IS PROVIDED BY THE COPYRIGHT HOLDERS AND CONTRIBUTORS "AS IS"
  29:Src/main.c    ****   * AND ANY EXPRESS OR IMPLIED WARRANTIES, INCLUDING, BUT NOT LIMITED TO, THE
  30:Src/main.c    ****   * IMPLIED WARRANTIES OF MERCHANTABILITY AND FITNESS FOR A PARTICULAR PURPOSE ARE
  31:Src/main.c    ****   * DISCLAIMED. IN NO EVENT SHALL THE COPYRIGHT HOLDER OR CONTRIBUTORS BE LIABLE
  32:Src/main.c    ****   * FOR ANY DIRECT, INDIRECT, INCIDENTAL, SPECIAL, EXEMPLARY, OR CONSEQUENTIAL
ARM GAS  /var/folders/kr/g9ry2bg56g773797gdtkvvkw0000gn/T//ccqSoQTt.s 			page 2


  33:Src/main.c    ****   * DAMAGES (INCLUDING, BUT NOT LIMITED TO, PROCUREMENT OF SUBSTITUTE GOODS OR
  34:Src/main.c    ****   * SERVICES; LOSS OF USE, DATA, OR PROFITS; OR BUSINESS INTERRUPTION) HOWEVER
  35:Src/main.c    ****   * CAUSED AND ON ANY THEORY OF LIABILITY, WHETHER IN CONTRACT, STRICT LIABILITY,
  36:Src/main.c    ****   * OR TORT (INCLUDING NEGLIGENCE OR OTHERWISE) ARISING IN ANY WAY OUT OF THE USE
  37:Src/main.c    ****   * OF THIS SOFTWARE, EVEN IF ADVISED OF THE POSSIBILITY OF SUCH DAMAGE.
  38:Src/main.c    ****   *
  39:Src/main.c    ****   ******************************************************************************
  40:Src/main.c    ****   */
  41:Src/main.c    **** 
  42:Src/main.c    **** /* Includes ------------------------------------------------------------------*/
  43:Src/main.c    **** #include "main.h"
  44:Src/main.c    **** #include "stm32f0xx_hal.h"
  45:Src/main.c    **** void _Error_Handler(char * file, int line);
  46:Src/main.c    **** 
  47:Src/main.c    **** /* USER CODE BEGIN Includes */
  48:Src/main.c    **** 
  49:Src/main.c    **** /* USER CODE END Includes */
  50:Src/main.c    **** 
  51:Src/main.c    **** /* Private variables ---------------------------------------------------------*/
  52:Src/main.c    **** 
  53:Src/main.c    **** /* USER CODE BEGIN PV */
  54:Src/main.c    **** /* Private variables ---------------------------------------------------------*/
  55:Src/main.c    **** 
  56:Src/main.c    **** /* USER CODE END PV */
  57:Src/main.c    **** 
  58:Src/main.c    **** /* Private function prototypes -----------------------------------------------*/
  59:Src/main.c    **** void SystemClock_Config(void);
  60:Src/main.c    **** 
  61:Src/main.c    **** /* USER CODE BEGIN PFP */
  62:Src/main.c    **** /* Private function prototypes -----------------------------------------------*/
  63:Src/main.c    **** 
  64:Src/main.c    **** /* USER CODE END PFP */
  65:Src/main.c    **** 
  66:Src/main.c    **** /* USER CODE BEGIN 0 */
  67:Src/main.c    **** 
  68:Src/main.c    **** /* USER CODE END 0 */
  69:Src/main.c    **** 
  70:Src/main.c    **** //EXTI0 Interrupt Handler
  71:Src/main.c    **** void EXTI0_1_IRQHandler(void)
  72:Src/main.c    **** {
  27              		.loc 1 72 1 view -0
  28              		.cfi_startproc
  29              		@ args = 0, pretend = 0, frame = 8
  30              		@ frame_needed = 0, uses_anonymous_args = 0
  31              		@ link register save eliminated.
  32 0000 82B0     		sub	sp, sp, #8
  33              	.LCFI0:
  34              		.cfi_def_cfa_offset 8
  73:Src/main.c    ****   //Toggle green and orange LEDs
  74:Src/main.c    ****   GPIOC->ODR ^= GPIO_ODR_8;
  35              		.loc 1 74 3 view .LVU1
  36              		.loc 1 74 8 is_stmt 0 view .LVU2
  37 0002 134B     		ldr	r3, .L4
  38 0004 5969     		ldr	r1, [r3, #20]
  39              		.loc 1 74 14 view .LVU3
  40 0006 8022     		movs	r2, #128
  41 0008 5200     		lsls	r2, r2, #1
ARM GAS  /var/folders/kr/g9ry2bg56g773797gdtkvvkw0000gn/T//ccqSoQTt.s 			page 3


  42 000a 4A40     		eors	r2, r1
  43 000c 5A61     		str	r2, [r3, #20]
  75:Src/main.c    ****   GPIOC->ODR ^= GPIO_ODR_9;
  44              		.loc 1 75 3 is_stmt 1 view .LVU4
  45              		.loc 1 75 8 is_stmt 0 view .LVU5
  46 000e 5969     		ldr	r1, [r3, #20]
  47              		.loc 1 75 14 view .LVU6
  48 0010 8022     		movs	r2, #128
  49 0012 9200     		lsls	r2, r2, #2
  50 0014 4A40     		eors	r2, r1
  51 0016 5A61     		str	r2, [r3, #20]
  76:Src/main.c    ****   //Delay
  77:Src/main.c    ****   volatile uint32_t counter = 0;
  52              		.loc 1 77 3 is_stmt 1 view .LVU7
  53              		.loc 1 77 21 is_stmt 0 view .LVU8
  54 0018 0023     		movs	r3, #0
  55 001a 0193     		str	r3, [sp, #4]
  78:Src/main.c    ****   while (counter < 1500000)
  56              		.loc 1 78 3 is_stmt 1 view .LVU9
  57              		.loc 1 78 9 is_stmt 0 view .LVU10
  58 001c 02E0     		b	.L2
  59              	.L3:
  79:Src/main.c    ****   {
  80:Src/main.c    ****     counter++;
  60              		.loc 1 80 5 is_stmt 1 view .LVU11
  61              		.loc 1 80 12 is_stmt 0 view .LVU12
  62 001e 019B     		ldr	r3, [sp, #4]
  63 0020 0133     		adds	r3, r3, #1
  64 0022 0193     		str	r3, [sp, #4]
  65              	.L2:
  78:Src/main.c    ****   while (counter < 1500000)
  66              		.loc 1 78 18 is_stmt 1 view .LVU13
  67 0024 019A     		ldr	r2, [sp, #4]
  68 0026 0B4B     		ldr	r3, .L4+4
  69 0028 9A42     		cmp	r2, r3
  70 002a F8D9     		bls	.L3
  81:Src/main.c    ****   }
  82:Src/main.c    ****   //Toggle green and orange LEDs
  83:Src/main.c    ****   GPIOC->ODR ^= GPIO_ODR_8;
  71              		.loc 1 83 3 view .LVU14
  72              		.loc 1 83 8 is_stmt 0 view .LVU15
  73 002c 084B     		ldr	r3, .L4
  74 002e 5969     		ldr	r1, [r3, #20]
  75              		.loc 1 83 14 view .LVU16
  76 0030 8022     		movs	r2, #128
  77 0032 5200     		lsls	r2, r2, #1
  78 0034 4A40     		eors	r2, r1
  79 0036 5A61     		str	r2, [r3, #20]
  84:Src/main.c    ****   GPIOC->ODR ^= GPIO_ODR_9;
  80              		.loc 1 84 3 is_stmt 1 view .LVU17
  81              		.loc 1 84 8 is_stmt 0 view .LVU18
  82 0038 5969     		ldr	r1, [r3, #20]
  83              		.loc 1 84 14 view .LVU19
  84 003a 8022     		movs	r2, #128
  85 003c 9200     		lsls	r2, r2, #2
  86 003e 4A40     		eors	r2, r1
  87 0040 5A61     		str	r2, [r3, #20]
ARM GAS  /var/folders/kr/g9ry2bg56g773797gdtkvvkw0000gn/T//ccqSoQTt.s 			page 4


  85:Src/main.c    ****   //Clear EXTI pending flag
  86:Src/main.c    ****   EXTI->PR |= EXTI_PR_PR0;
  88              		.loc 1 86 3 is_stmt 1 view .LVU20
  89              		.loc 1 86 7 is_stmt 0 view .LVU21
  90 0042 054A     		ldr	r2, .L4+8
  91 0044 5369     		ldr	r3, [r2, #20]
  92              		.loc 1 86 12 view .LVU22
  93 0046 0121     		movs	r1, #1
  94 0048 0B43     		orrs	r3, r1
  95 004a 5361     		str	r3, [r2, #20]
  87:Src/main.c    **** }
  96              		.loc 1 87 1 view .LVU23
  97 004c 02B0     		add	sp, sp, #8
  98              		@ sp needed
  99 004e 7047     		bx	lr
 100              	.L5:
 101              		.align	2
 102              	.L4:
 103 0050 00080048 		.word	1207961600
 104 0054 5FE31600 		.word	1499999
 105 0058 00040140 		.word	1073808384
 106              		.cfi_endproc
 107              	.LFE40:
 109              		.section	.text.init_leds,"ax",%progbits
 110              		.align	1
 111              		.global	init_leds
 112              		.syntax unified
 113              		.code	16
 114              		.thumb_func
 116              	init_leds:
 117              	.LFB41:
  88:Src/main.c    **** 
  89:Src/main.c    **** //Initialize all four LEDs
  90:Src/main.c    **** void init_leds(void)
  91:Src/main.c    **** {
 118              		.loc 1 91 1 is_stmt 1 view -0
 119              		.cfi_startproc
 120              		@ args = 0, pretend = 0, frame = 0
 121              		@ frame_needed = 0, uses_anonymous_args = 0
 122              		@ link register save eliminated.
  92:Src/main.c    ****   //Initialize red LED, PC6
  93:Src/main.c    ****   GPIOC->MODER |= GPIO_MODER_MODER6_0; //General purpose output
 123              		.loc 1 93 3 view .LVU25
 124              		.loc 1 93 8 is_stmt 0 view .LVU26
 125 0000 224B     		ldr	r3, .L7
 126 0002 1968     		ldr	r1, [r3]
 127              		.loc 1 93 16 view .LVU27
 128 0004 8022     		movs	r2, #128
 129 0006 5201     		lsls	r2, r2, #5
 130 0008 0A43     		orrs	r2, r1
 131 000a 1A60     		str	r2, [r3]
  94:Src/main.c    ****   GPIOC->OTYPER &= ~GPIO_OTYPER_OT_6; // Push-pull
 132              		.loc 1 94 3 is_stmt 1 view .LVU28
 133              		.loc 1 94 8 is_stmt 0 view .LVU29
 134 000c 5A68     		ldr	r2, [r3, #4]
 135              		.loc 1 94 17 view .LVU30
 136 000e 4021     		movs	r1, #64
ARM GAS  /var/folders/kr/g9ry2bg56g773797gdtkvvkw0000gn/T//ccqSoQTt.s 			page 5


 137 0010 8A43     		bics	r2, r1
 138 0012 5A60     		str	r2, [r3, #4]
  95:Src/main.c    ****   GPIOC->OSPEEDR &= ~GPIO_OSPEEDR_OSPEEDR6_0; //Low speed
 139              		.loc 1 95 3 is_stmt 1 view .LVU31
 140              		.loc 1 95 8 is_stmt 0 view .LVU32
 141 0014 9A68     		ldr	r2, [r3, #8]
 142              		.loc 1 95 18 view .LVU33
 143 0016 1E49     		ldr	r1, .L7+4
 144 0018 0A40     		ands	r2, r1
 145 001a 9A60     		str	r2, [r3, #8]
  96:Src/main.c    ****   GPIOC->PUPDR &= ~(GPIO_PUPDR_PUPDR6_0 | GPIO_PUPDR_PUPDR6_1); //No pull up or down
 146              		.loc 1 96 3 is_stmt 1 view .LVU34
 147              		.loc 1 96 8 is_stmt 0 view .LVU35
 148 001c DA68     		ldr	r2, [r3, #12]
 149              		.loc 1 96 16 view .LVU36
 150 001e 1D49     		ldr	r1, .L7+8
 151 0020 0A40     		ands	r2, r1
 152 0022 DA60     		str	r2, [r3, #12]
  97:Src/main.c    **** 
  98:Src/main.c    ****   //Initialize blue LED, PC7
  99:Src/main.c    ****   GPIOC->MODER |= GPIO_MODER_MODER7_0; //General purpose output
 153              		.loc 1 99 3 is_stmt 1 view .LVU37
 154              		.loc 1 99 8 is_stmt 0 view .LVU38
 155 0024 1968     		ldr	r1, [r3]
 156              		.loc 1 99 16 view .LVU39
 157 0026 8022     		movs	r2, #128
 158 0028 D201     		lsls	r2, r2, #7
 159 002a 0A43     		orrs	r2, r1
 160 002c 1A60     		str	r2, [r3]
 100:Src/main.c    ****   GPIOC->OTYPER &= ~GPIO_OTYPER_OT_7; // Push-pull
 161              		.loc 1 100 3 is_stmt 1 view .LVU40
 162              		.loc 1 100 8 is_stmt 0 view .LVU41
 163 002e 5A68     		ldr	r2, [r3, #4]
 164              		.loc 1 100 17 view .LVU42
 165 0030 8021     		movs	r1, #128
 166 0032 8A43     		bics	r2, r1
 167 0034 5A60     		str	r2, [r3, #4]
 101:Src/main.c    ****   GPIOC->OSPEEDR &= ~GPIO_OSPEEDR_OSPEEDR7_0; //Low speed
 168              		.loc 1 101 3 is_stmt 1 view .LVU43
 169              		.loc 1 101 8 is_stmt 0 view .LVU44
 170 0036 9A68     		ldr	r2, [r3, #8]
 171              		.loc 1 101 18 view .LVU45
 172 0038 1749     		ldr	r1, .L7+12
 173 003a 0A40     		ands	r2, r1
 174 003c 9A60     		str	r2, [r3, #8]
 102:Src/main.c    ****   GPIOC->PUPDR &= ~(GPIO_PUPDR_PUPDR7_0 | GPIO_PUPDR_PUPDR7_1); //No pull up or down
 175              		.loc 1 102 3 is_stmt 1 view .LVU46
 176              		.loc 1 102 8 is_stmt 0 view .LVU47
 177 003e DA68     		ldr	r2, [r3, #12]
 178              		.loc 1 102 16 view .LVU48
 179 0040 1649     		ldr	r1, .L7+16
 180 0042 0A40     		ands	r2, r1
 181 0044 DA60     		str	r2, [r3, #12]
 103:Src/main.c    **** 
 104:Src/main.c    ****   //Initialize orange LED, PC8
 105:Src/main.c    ****   GPIOC->MODER |= GPIO_MODER_MODER8_0; //General purpose output
 182              		.loc 1 105 3 is_stmt 1 view .LVU49
ARM GAS  /var/folders/kr/g9ry2bg56g773797gdtkvvkw0000gn/T//ccqSoQTt.s 			page 6


 183              		.loc 1 105 8 is_stmt 0 view .LVU50
 184 0046 1968     		ldr	r1, [r3]
 185              		.loc 1 105 16 view .LVU51
 186 0048 8022     		movs	r2, #128
 187 004a 5202     		lsls	r2, r2, #9
 188 004c 0A43     		orrs	r2, r1
 189 004e 1A60     		str	r2, [r3]
 106:Src/main.c    ****   GPIOC->OTYPER &= ~GPIO_OTYPER_OT_8; // Push-pull
 190              		.loc 1 106 3 is_stmt 1 view .LVU52
 191              		.loc 1 106 8 is_stmt 0 view .LVU53
 192 0050 5A68     		ldr	r2, [r3, #4]
 193              		.loc 1 106 17 view .LVU54
 194 0052 1349     		ldr	r1, .L7+20
 195 0054 0A40     		ands	r2, r1
 196 0056 5A60     		str	r2, [r3, #4]
 107:Src/main.c    ****   GPIOC->OSPEEDR &= ~GPIO_OSPEEDR_OSPEEDR8_0; //Low speed
 197              		.loc 1 107 3 is_stmt 1 view .LVU55
 198              		.loc 1 107 8 is_stmt 0 view .LVU56
 199 0058 9A68     		ldr	r2, [r3, #8]
 200              		.loc 1 107 18 view .LVU57
 201 005a 1249     		ldr	r1, .L7+24
 202 005c 0A40     		ands	r2, r1
 203 005e 9A60     		str	r2, [r3, #8]
 108:Src/main.c    ****   GPIOC->PUPDR &= ~(GPIO_PUPDR_PUPDR8_0 | GPIO_PUPDR_PUPDR8_1); //No pull up or down
 204              		.loc 1 108 3 is_stmt 1 view .LVU58
 205              		.loc 1 108 8 is_stmt 0 view .LVU59
 206 0060 DA68     		ldr	r2, [r3, #12]
 207              		.loc 1 108 16 view .LVU60
 208 0062 1149     		ldr	r1, .L7+28
 209 0064 0A40     		ands	r2, r1
 210 0066 DA60     		str	r2, [r3, #12]
 109:Src/main.c    **** 
 110:Src/main.c    ****   //Initialize green LED, PC9
 111:Src/main.c    ****   GPIOC->MODER |= GPIO_MODER_MODER9_0; //General purpose output
 211              		.loc 1 111 3 is_stmt 1 view .LVU61
 212              		.loc 1 111 8 is_stmt 0 view .LVU62
 213 0068 1968     		ldr	r1, [r3]
 214              		.loc 1 111 16 view .LVU63
 215 006a 8022     		movs	r2, #128
 216 006c D202     		lsls	r2, r2, #11
 217 006e 0A43     		orrs	r2, r1
 218 0070 1A60     		str	r2, [r3]
 112:Src/main.c    ****   GPIOC->OTYPER &= ~GPIO_OTYPER_OT_9; // Push-pull
 219              		.loc 1 112 3 is_stmt 1 view .LVU64
 220              		.loc 1 112 8 is_stmt 0 view .LVU65
 221 0072 5A68     		ldr	r2, [r3, #4]
 222              		.loc 1 112 17 view .LVU66
 223 0074 0D49     		ldr	r1, .L7+32
 224 0076 0A40     		ands	r2, r1
 225 0078 5A60     		str	r2, [r3, #4]
 113:Src/main.c    ****   GPIOC->OSPEEDR &= ~GPIO_OSPEEDR_OSPEEDR9_0; //Low speed
 226              		.loc 1 113 3 is_stmt 1 view .LVU67
 227              		.loc 1 113 8 is_stmt 0 view .LVU68
 228 007a 9A68     		ldr	r2, [r3, #8]
 229              		.loc 1 113 18 view .LVU69
 230 007c 0C49     		ldr	r1, .L7+36
 231 007e 0A40     		ands	r2, r1
ARM GAS  /var/folders/kr/g9ry2bg56g773797gdtkvvkw0000gn/T//ccqSoQTt.s 			page 7


 232 0080 9A60     		str	r2, [r3, #8]
 114:Src/main.c    ****   GPIOC->PUPDR &= ~(GPIO_PUPDR_PUPDR9_0 | GPIO_PUPDR_PUPDR9_1); //No pull up or down
 233              		.loc 1 114 3 is_stmt 1 view .LVU70
 234              		.loc 1 114 8 is_stmt 0 view .LVU71
 235 0082 DA68     		ldr	r2, [r3, #12]
 236              		.loc 1 114 16 view .LVU72
 237 0084 0B49     		ldr	r1, .L7+40
 238 0086 0A40     		ands	r2, r1
 239 0088 DA60     		str	r2, [r3, #12]
 115:Src/main.c    **** 
 116:Src/main.c    **** }
 240              		.loc 1 116 1 view .LVU73
 241              		@ sp needed
 242 008a 7047     		bx	lr
 243              	.L8:
 244              		.align	2
 245              	.L7:
 246 008c 00080048 		.word	1207961600
 247 0090 FFEFFFFF 		.word	-4097
 248 0094 FFCFFFFF 		.word	-12289
 249 0098 FFBFFFFF 		.word	-16385
 250 009c FF3FFFFF 		.word	-49153
 251 00a0 FFFEFFFF 		.word	-257
 252 00a4 FFFFFEFF 		.word	-65537
 253 00a8 FFFFFCFF 		.word	-196609
 254 00ac FFFDFFFF 		.word	-513
 255 00b0 FFFFFBFF 		.word	-262145
 256 00b4 FFFFF3FF 		.word	-786433
 257              		.cfi_endproc
 258              	.LFE41:
 260              		.section	.text._Error_Handler,"ax",%progbits
 261              		.align	1
 262              		.global	_Error_Handler
 263              		.syntax unified
 264              		.code	16
 265              		.thumb_func
 267              	_Error_Handler:
 268              	.LFB44:
 117:Src/main.c    **** 
 118:Src/main.c    **** int main(void) 
 119:Src/main.c    **** {
 120:Src/main.c    ****   HAL_Init(); // Reset of all peripherals, init the Flash and Systick
 121:Src/main.c    ****   SystemClock_Config(); //Configure the system clock
 122:Src/main.c    **** 
 123:Src/main.c    ****   //Enable GPIOC and GPIOA clock
 124:Src/main.c    ****   RCC->AHBENR |= RCC_AHBENR_GPIOCEN; 
 125:Src/main.c    ****   RCC->AHBENR |= RCC_AHBENR_GPIOAEN;
 126:Src/main.c    ****   
 127:Src/main.c    ****   //Initialize all LEDs
 128:Src/main.c    ****   init_leds(); 
 129:Src/main.c    ****   
 130:Src/main.c    ****   //Set green LED on
 131:Src/main.c    ****   GPIOC->BSRR |= GPIO_BSRR_BS_9;
 132:Src/main.c    **** 
 133:Src/main.c    ****   //Initialize button
 134:Src/main.c    ****   GPIOA->MODER &= ~(GPIO_MODER_MODER0 | GPIO_MODER_MODER1); //Input
 135:Src/main.c    ****   GPIOA->OSPEEDR &= ~GPIO_OSPEEDR_OSPEEDR0; //Low speed
ARM GAS  /var/folders/kr/g9ry2bg56g773797gdtkvvkw0000gn/T//ccqSoQTt.s 			page 8


 136:Src/main.c    ****   GPIOA->PUPDR |= GPIO_PUPDR_PUPDR0_1; //Pull down
 137:Src/main.c    ****   GPIOA->PUPDR &= ~GPIO_PUPDR_PUPDR0_0; //Pull down
 138:Src/main.c    **** 
 139:Src/main.c    ****   //Unmask EXTI0
 140:Src/main.c    ****   EXTI->IMR |= EXTI_IMR_MR0;
 141:Src/main.c    ****   //EXTI0 rising edge trigger
 142:Src/main.c    ****   EXTI->RTSR |= EXTI_RTSR_TR0;
 143:Src/main.c    ****   //Enable RCC for SYSCFG
 144:Src/main.c    ****   RCC->APB2ENR |= RCC_APB2ENR_SYSCFGCOMPEN;
 145:Src/main.c    ****   //Route PA0 to EXTI0
 146:Src/main.c    ****   SYSCFG->EXTICR[1] &= ~(SYSCFG_EXTICR1_EXTI0_PA);
 147:Src/main.c    ****   //Enable EXTI0 interrupt
 148:Src/main.c    ****   NVIC_EnableIRQ(EXTI0_1_IRQn);
 149:Src/main.c    ****   //Set EXTI0 interrupt priority to 1
 150:Src/main.c    ****   NVIC_SetPriority(EXTI0_1_IRQn, 3);
 151:Src/main.c    ****   //Change Systick priority
 152:Src/main.c    ****   NVIC_SetPriority(SysTick_IRQn,2);
 153:Src/main.c    **** 
 154:Src/main.c    ****   while (1) 
 155:Src/main.c    ****   {
 156:Src/main.c    ****     //Delay 
 157:Src/main.c    ****     HAL_Delay(500); 
 158:Src/main.c    ****     //Toggle red LED
 159:Src/main.c    ****     GPIOC->ODR ^= GPIO_ODR_6;
 160:Src/main.c    ****   }
 161:Src/main.c    **** }
 162:Src/main.c    **** 
 163:Src/main.c    **** /** System Clock Configuration
 164:Src/main.c    **** */
 165:Src/main.c    **** void SystemClock_Config(void)
 166:Src/main.c    **** {
 167:Src/main.c    **** 
 168:Src/main.c    ****   RCC_OscInitTypeDef RCC_OscInitStruct;
 169:Src/main.c    ****   RCC_ClkInitTypeDef RCC_ClkInitStruct;
 170:Src/main.c    **** 
 171:Src/main.c    ****     /**Initializes the CPU, AHB and APB busses clocks
 172:Src/main.c    ****     */
 173:Src/main.c    ****   RCC_OscInitStruct.OscillatorType = RCC_OSCILLATORTYPE_HSI;
 174:Src/main.c    ****   RCC_OscInitStruct.HSIState = RCC_HSI_ON;
 175:Src/main.c    ****   RCC_OscInitStruct.HSICalibrationValue = 16;
 176:Src/main.c    ****   RCC_OscInitStruct.PLL.PLLState = RCC_PLL_NONE;
 177:Src/main.c    ****   if (HAL_RCC_OscConfig(&RCC_OscInitStruct) != HAL_OK)
 178:Src/main.c    ****   {
 179:Src/main.c    ****     _Error_Handler(__FILE__, __LINE__);
 180:Src/main.c    ****   }
 181:Src/main.c    **** 
 182:Src/main.c    ****     /**Initializes the CPU, AHB and APB busses clocks
 183:Src/main.c    ****     */
 184:Src/main.c    ****   RCC_ClkInitStruct.ClockType = RCC_CLOCKTYPE_HCLK|RCC_CLOCKTYPE_SYSCLK
 185:Src/main.c    ****                               |RCC_CLOCKTYPE_PCLK1;
 186:Src/main.c    ****   RCC_ClkInitStruct.SYSCLKSource = RCC_SYSCLKSOURCE_HSI;
 187:Src/main.c    ****   RCC_ClkInitStruct.AHBCLKDivider = RCC_SYSCLK_DIV1;
 188:Src/main.c    ****   RCC_ClkInitStruct.APB1CLKDivider = RCC_HCLK_DIV1;
 189:Src/main.c    **** 
 190:Src/main.c    ****   if (HAL_RCC_ClockConfig(&RCC_ClkInitStruct, FLASH_LATENCY_0) != HAL_OK)
 191:Src/main.c    ****   {
 192:Src/main.c    ****     _Error_Handler(__FILE__, __LINE__);
ARM GAS  /var/folders/kr/g9ry2bg56g773797gdtkvvkw0000gn/T//ccqSoQTt.s 			page 9


 193:Src/main.c    ****   }
 194:Src/main.c    **** 
 195:Src/main.c    ****     /**Configure the Systick interrupt time
 196:Src/main.c    ****     */
 197:Src/main.c    ****   HAL_SYSTICK_Config(HAL_RCC_GetHCLKFreq()/1000);
 198:Src/main.c    **** 
 199:Src/main.c    ****     /**Configure the Systick
 200:Src/main.c    ****     */
 201:Src/main.c    ****   HAL_SYSTICK_CLKSourceConfig(SYSTICK_CLKSOURCE_HCLK);
 202:Src/main.c    **** 
 203:Src/main.c    ****   /* SysTick_IRQn interrupt configuration */
 204:Src/main.c    ****   HAL_NVIC_SetPriority(SysTick_IRQn, 0, 0);
 205:Src/main.c    **** }
 206:Src/main.c    **** 
 207:Src/main.c    **** /* USER CODE BEGIN 4 */
 208:Src/main.c    **** 
 209:Src/main.c    **** /* USER CODE END 4 */
 210:Src/main.c    **** 
 211:Src/main.c    **** /**
 212:Src/main.c    ****   * @brief  This function is executed in case of error occurrence.
 213:Src/main.c    ****   * @param  None
 214:Src/main.c    ****   * @retval None
 215:Src/main.c    ****   */
 216:Src/main.c    **** void _Error_Handler(char * file, int line)
 217:Src/main.c    **** {
 269              		.loc 1 217 1 is_stmt 1 view -0
 270              		.cfi_startproc
 271              		@ Volatile: function does not return.
 272              		@ args = 0, pretend = 0, frame = 0
 273              		@ frame_needed = 0, uses_anonymous_args = 0
 274              		@ link register save eliminated.
 275              	.LVL0:
 276              	.L10:
 218:Src/main.c    ****   /* USER CODE BEGIN Error_Handler_Debug */
 219:Src/main.c    ****   /* User can add his own implementation to report the HAL error return state */
 220:Src/main.c    ****   while(1)
 277              		.loc 1 220 3 view .LVU75
 221:Src/main.c    ****   {
 222:Src/main.c    ****   }
 278              		.loc 1 222 3 view .LVU76
 220:Src/main.c    ****   {
 279              		.loc 1 220 8 view .LVU77
 280 0000 FEE7     		b	.L10
 281              		.cfi_endproc
 282              	.LFE44:
 284              		.section	.rodata.SystemClock_Config.str1.4,"aMS",%progbits,1
 285              		.align	2
 286              	.LC0:
 287 0000 5372632F 		.ascii	"Src/main.c\000"
 287      6D61696E 
 287      2E6300
 288              		.global	__aeabi_uidiv
 289              		.section	.text.SystemClock_Config,"ax",%progbits
 290              		.align	1
 291              		.global	SystemClock_Config
 292              		.syntax unified
 293              		.code	16
ARM GAS  /var/folders/kr/g9ry2bg56g773797gdtkvvkw0000gn/T//ccqSoQTt.s 			page 10


 294              		.thumb_func
 296              	SystemClock_Config:
 297              	.LFB43:
 166:Src/main.c    **** 
 298              		.loc 1 166 1 view -0
 299              		.cfi_startproc
 300              		@ args = 0, pretend = 0, frame = 72
 301              		@ frame_needed = 0, uses_anonymous_args = 0
 302 0000 00B5     		push	{lr}
 303              	.LCFI1:
 304              		.cfi_def_cfa_offset 4
 305              		.cfi_offset 14, -4
 306 0002 93B0     		sub	sp, sp, #76
 307              	.LCFI2:
 308              		.cfi_def_cfa_offset 80
 168:Src/main.c    ****   RCC_ClkInitTypeDef RCC_ClkInitStruct;
 309              		.loc 1 168 3 view .LVU79
 169:Src/main.c    **** 
 310              		.loc 1 169 3 view .LVU80
 173:Src/main.c    ****   RCC_OscInitStruct.HSIState = RCC_HSI_ON;
 311              		.loc 1 173 3 view .LVU81
 173:Src/main.c    ****   RCC_OscInitStruct.HSIState = RCC_HSI_ON;
 312              		.loc 1 173 36 is_stmt 0 view .LVU82
 313 0004 0223     		movs	r3, #2
 314 0006 0593     		str	r3, [sp, #20]
 174:Src/main.c    ****   RCC_OscInitStruct.HSICalibrationValue = 16;
 315              		.loc 1 174 3 is_stmt 1 view .LVU83
 174:Src/main.c    ****   RCC_OscInitStruct.HSICalibrationValue = 16;
 316              		.loc 1 174 30 is_stmt 0 view .LVU84
 317 0008 013B     		subs	r3, r3, #1
 318 000a 0893     		str	r3, [sp, #32]
 175:Src/main.c    ****   RCC_OscInitStruct.PLL.PLLState = RCC_PLL_NONE;
 319              		.loc 1 175 3 is_stmt 1 view .LVU85
 175:Src/main.c    ****   RCC_OscInitStruct.PLL.PLLState = RCC_PLL_NONE;
 320              		.loc 1 175 41 is_stmt 0 view .LVU86
 321 000c 0F33     		adds	r3, r3, #15
 322 000e 0993     		str	r3, [sp, #36]
 176:Src/main.c    ****   if (HAL_RCC_OscConfig(&RCC_OscInitStruct) != HAL_OK)
 323              		.loc 1 176 3 is_stmt 1 view .LVU87
 176:Src/main.c    ****   if (HAL_RCC_OscConfig(&RCC_OscInitStruct) != HAL_OK)
 324              		.loc 1 176 34 is_stmt 0 view .LVU88
 325 0010 0023     		movs	r3, #0
 326 0012 0E93     		str	r3, [sp, #56]
 177:Src/main.c    ****   {
 327              		.loc 1 177 3 is_stmt 1 view .LVU89
 177:Src/main.c    ****   {
 328              		.loc 1 177 7 is_stmt 0 view .LVU90
 329 0014 05A8     		add	r0, sp, #20
 330 0016 FFF7FEFF 		bl	HAL_RCC_OscConfig
 331              	.LVL1:
 177:Src/main.c    ****   {
 332              		.loc 1 177 6 discriminator 1 view .LVU91
 333 001a 0028     		cmp	r0, #0
 334 001c 1ED1     		bne	.L14
 184:Src/main.c    ****                               |RCC_CLOCKTYPE_PCLK1;
 335              		.loc 1 184 3 is_stmt 1 view .LVU92
 184:Src/main.c    ****                               |RCC_CLOCKTYPE_PCLK1;
ARM GAS  /var/folders/kr/g9ry2bg56g773797gdtkvvkw0000gn/T//ccqSoQTt.s 			page 11


 336              		.loc 1 184 31 is_stmt 0 view .LVU93
 337 001e 0723     		movs	r3, #7
 338 0020 0193     		str	r3, [sp, #4]
 186:Src/main.c    ****   RCC_ClkInitStruct.AHBCLKDivider = RCC_SYSCLK_DIV1;
 339              		.loc 1 186 3 is_stmt 1 view .LVU94
 186:Src/main.c    ****   RCC_ClkInitStruct.AHBCLKDivider = RCC_SYSCLK_DIV1;
 340              		.loc 1 186 34 is_stmt 0 view .LVU95
 341 0022 0023     		movs	r3, #0
 342 0024 0293     		str	r3, [sp, #8]
 187:Src/main.c    ****   RCC_ClkInitStruct.APB1CLKDivider = RCC_HCLK_DIV1;
 343              		.loc 1 187 3 is_stmt 1 view .LVU96
 187:Src/main.c    ****   RCC_ClkInitStruct.APB1CLKDivider = RCC_HCLK_DIV1;
 344              		.loc 1 187 35 is_stmt 0 view .LVU97
 345 0026 0393     		str	r3, [sp, #12]
 188:Src/main.c    **** 
 346              		.loc 1 188 3 is_stmt 1 view .LVU98
 188:Src/main.c    **** 
 347              		.loc 1 188 36 is_stmt 0 view .LVU99
 348 0028 0493     		str	r3, [sp, #16]
 190:Src/main.c    ****   {
 349              		.loc 1 190 3 is_stmt 1 view .LVU100
 190:Src/main.c    ****   {
 350              		.loc 1 190 7 is_stmt 0 view .LVU101
 351 002a 0021     		movs	r1, #0
 352 002c 01A8     		add	r0, sp, #4
 353 002e FFF7FEFF 		bl	HAL_RCC_ClockConfig
 354              	.LVL2:
 190:Src/main.c    ****   {
 355              		.loc 1 190 6 discriminator 1 view .LVU102
 356 0032 0028     		cmp	r0, #0
 357 0034 16D1     		bne	.L15
 197:Src/main.c    **** 
 358              		.loc 1 197 3 is_stmt 1 view .LVU103
 197:Src/main.c    **** 
 359              		.loc 1 197 22 is_stmt 0 view .LVU104
 360 0036 FFF7FEFF 		bl	HAL_RCC_GetHCLKFreq
 361              	.LVL3:
 197:Src/main.c    **** 
 362              		.loc 1 197 3 discriminator 1 view .LVU105
 363 003a FA21     		movs	r1, #250
 364 003c 8900     		lsls	r1, r1, #2
 365 003e FFF7FEFF 		bl	__aeabi_uidiv
 366              	.LVL4:
 367 0042 FFF7FEFF 		bl	HAL_SYSTICK_Config
 368              	.LVL5:
 201:Src/main.c    **** 
 369              		.loc 1 201 3 is_stmt 1 view .LVU106
 370 0046 0420     		movs	r0, #4
 371 0048 FFF7FEFF 		bl	HAL_SYSTICK_CLKSourceConfig
 372              	.LVL6:
 204:Src/main.c    **** }
 373              		.loc 1 204 3 view .LVU107
 374 004c 0120     		movs	r0, #1
 375 004e 0022     		movs	r2, #0
 376 0050 0021     		movs	r1, #0
 377 0052 4042     		rsbs	r0, r0, #0
 378 0054 FFF7FEFF 		bl	HAL_NVIC_SetPriority
ARM GAS  /var/folders/kr/g9ry2bg56g773797gdtkvvkw0000gn/T//ccqSoQTt.s 			page 12


 379              	.LVL7:
 205:Src/main.c    **** 
 380              		.loc 1 205 1 is_stmt 0 view .LVU108
 381 0058 13B0     		add	sp, sp, #76
 382              		@ sp needed
 383 005a 00BD     		pop	{pc}
 384              	.L14:
 179:Src/main.c    ****   }
 385              		.loc 1 179 5 is_stmt 1 view .LVU109
 386 005c 0348     		ldr	r0, .L16
 387 005e B321     		movs	r1, #179
 388 0060 FFF7FEFF 		bl	_Error_Handler
 389              	.LVL8:
 390              	.L15:
 192:Src/main.c    ****   }
 391              		.loc 1 192 5 view .LVU110
 392 0064 0148     		ldr	r0, .L16
 393 0066 C021     		movs	r1, #192
 394 0068 FFF7FEFF 		bl	_Error_Handler
 395              	.LVL9:
 396              	.L17:
 397              		.align	2
 398              	.L16:
 399 006c 00000000 		.word	.LC0
 400              		.cfi_endproc
 401              	.LFE43:
 403              		.section	.text.main,"ax",%progbits
 404              		.align	1
 405              		.global	main
 406              		.syntax unified
 407              		.code	16
 408              		.thumb_func
 410              	main:
 411              	.LFB42:
 119:Src/main.c    ****   HAL_Init(); // Reset of all peripherals, init the Flash and Systick
 412              		.loc 1 119 1 view -0
 413              		.cfi_startproc
 414              		@ Volatile: function does not return.
 415              		@ args = 0, pretend = 0, frame = 0
 416              		@ frame_needed = 0, uses_anonymous_args = 0
 417 0000 10B5     		push	{r4, lr}
 418              	.LCFI3:
 419              		.cfi_def_cfa_offset 8
 420              		.cfi_offset 4, -8
 421              		.cfi_offset 14, -4
 120:Src/main.c    ****   SystemClock_Config(); //Configure the system clock
 422              		.loc 1 120 3 view .LVU112
 423 0002 FFF7FEFF 		bl	HAL_Init
 424              	.LVL10:
 121:Src/main.c    **** 
 425              		.loc 1 121 3 view .LVU113
 426 0006 FFF7FEFF 		bl	SystemClock_Config
 427              	.LVL11:
 124:Src/main.c    ****   RCC->AHBENR |= RCC_AHBENR_GPIOAEN;
 428              		.loc 1 124 3 view .LVU114
 124:Src/main.c    ****   RCC->AHBENR |= RCC_AHBENR_GPIOAEN;
 429              		.loc 1 124 6 is_stmt 0 view .LVU115
ARM GAS  /var/folders/kr/g9ry2bg56g773797gdtkvvkw0000gn/T//ccqSoQTt.s 			page 13


 430 000a 284C     		ldr	r4, .L20
 431 000c 6269     		ldr	r2, [r4, #20]
 124:Src/main.c    ****   RCC->AHBENR |= RCC_AHBENR_GPIOAEN;
 432              		.loc 1 124 15 view .LVU116
 433 000e 8023     		movs	r3, #128
 434 0010 1B03     		lsls	r3, r3, #12
 435 0012 1343     		orrs	r3, r2
 436 0014 6361     		str	r3, [r4, #20]
 125:Src/main.c    ****   
 437              		.loc 1 125 3 is_stmt 1 view .LVU117
 125:Src/main.c    ****   
 438              		.loc 1 125 6 is_stmt 0 view .LVU118
 439 0016 6269     		ldr	r2, [r4, #20]
 125:Src/main.c    ****   
 440              		.loc 1 125 15 view .LVU119
 441 0018 8023     		movs	r3, #128
 442 001a 9B02     		lsls	r3, r3, #10
 443 001c 1343     		orrs	r3, r2
 444 001e 6361     		str	r3, [r4, #20]
 128:Src/main.c    ****   
 445              		.loc 1 128 3 is_stmt 1 view .LVU120
 446 0020 FFF7FEFF 		bl	init_leds
 447              	.LVL12:
 131:Src/main.c    **** 
 448              		.loc 1 131 3 view .LVU121
 131:Src/main.c    **** 
 449              		.loc 1 131 8 is_stmt 0 view .LVU122
 450 0024 224A     		ldr	r2, .L20+4
 451 0026 9169     		ldr	r1, [r2, #24]
 131:Src/main.c    **** 
 452              		.loc 1 131 15 view .LVU123
 453 0028 8023     		movs	r3, #128
 454 002a 9B00     		lsls	r3, r3, #2
 455 002c 0B43     		orrs	r3, r1
 456 002e 9361     		str	r3, [r2, #24]
 134:Src/main.c    ****   GPIOA->OSPEEDR &= ~GPIO_OSPEEDR_OSPEEDR0; //Low speed
 457              		.loc 1 134 3 is_stmt 1 view .LVU124
 134:Src/main.c    ****   GPIOA->OSPEEDR &= ~GPIO_OSPEEDR_OSPEEDR0; //Low speed
 458              		.loc 1 134 8 is_stmt 0 view .LVU125
 459 0030 9023     		movs	r3, #144
 460 0032 DB05     		lsls	r3, r3, #23
 461 0034 1A68     		ldr	r2, [r3]
 134:Src/main.c    ****   GPIOA->OSPEEDR &= ~GPIO_OSPEEDR_OSPEEDR0; //Low speed
 462              		.loc 1 134 16 view .LVU126
 463 0036 0F21     		movs	r1, #15
 464 0038 8A43     		bics	r2, r1
 465 003a 1A60     		str	r2, [r3]
 135:Src/main.c    ****   GPIOA->PUPDR |= GPIO_PUPDR_PUPDR0_1; //Pull down
 466              		.loc 1 135 3 is_stmt 1 view .LVU127
 135:Src/main.c    ****   GPIOA->PUPDR |= GPIO_PUPDR_PUPDR0_1; //Pull down
 467              		.loc 1 135 8 is_stmt 0 view .LVU128
 468 003c 9A68     		ldr	r2, [r3, #8]
 135:Src/main.c    ****   GPIOA->PUPDR |= GPIO_PUPDR_PUPDR0_1; //Pull down
 469              		.loc 1 135 18 view .LVU129
 470 003e 0C39     		subs	r1, r1, #12
 471 0040 8A43     		bics	r2, r1
 472 0042 9A60     		str	r2, [r3, #8]
ARM GAS  /var/folders/kr/g9ry2bg56g773797gdtkvvkw0000gn/T//ccqSoQTt.s 			page 14


 136:Src/main.c    ****   GPIOA->PUPDR &= ~GPIO_PUPDR_PUPDR0_0; //Pull down
 473              		.loc 1 136 3 is_stmt 1 view .LVU130
 136:Src/main.c    ****   GPIOA->PUPDR &= ~GPIO_PUPDR_PUPDR0_0; //Pull down
 474              		.loc 1 136 8 is_stmt 0 view .LVU131
 475 0044 DA68     		ldr	r2, [r3, #12]
 136:Src/main.c    ****   GPIOA->PUPDR &= ~GPIO_PUPDR_PUPDR0_0; //Pull down
 476              		.loc 1 136 16 view .LVU132
 477 0046 0139     		subs	r1, r1, #1
 478 0048 0A43     		orrs	r2, r1
 479 004a DA60     		str	r2, [r3, #12]
 137:Src/main.c    **** 
 480              		.loc 1 137 3 is_stmt 1 view .LVU133
 137:Src/main.c    **** 
 481              		.loc 1 137 8 is_stmt 0 view .LVU134
 482 004c D968     		ldr	r1, [r3, #12]
 137:Src/main.c    **** 
 483              		.loc 1 137 16 view .LVU135
 484 004e 0122     		movs	r2, #1
 485 0050 9143     		bics	r1, r2
 486 0052 D960     		str	r1, [r3, #12]
 140:Src/main.c    ****   //EXTI0 rising edge trigger
 487              		.loc 1 140 3 is_stmt 1 view .LVU136
 140:Src/main.c    ****   //EXTI0 rising edge trigger
 488              		.loc 1 140 7 is_stmt 0 view .LVU137
 489 0054 174B     		ldr	r3, .L20+8
 490 0056 1968     		ldr	r1, [r3]
 140:Src/main.c    ****   //EXTI0 rising edge trigger
 491              		.loc 1 140 13 view .LVU138
 492 0058 1143     		orrs	r1, r2
 493 005a 1960     		str	r1, [r3]
 142:Src/main.c    ****   //Enable RCC for SYSCFG
 494              		.loc 1 142 3 is_stmt 1 view .LVU139
 142:Src/main.c    ****   //Enable RCC for SYSCFG
 495              		.loc 1 142 7 is_stmt 0 view .LVU140
 496 005c 9968     		ldr	r1, [r3, #8]
 142:Src/main.c    ****   //Enable RCC for SYSCFG
 497              		.loc 1 142 14 view .LVU141
 498 005e 1143     		orrs	r1, r2
 499 0060 9960     		str	r1, [r3, #8]
 144:Src/main.c    ****   //Route PA0 to EXTI0
 500              		.loc 1 144 3 is_stmt 1 view .LVU142
 144:Src/main.c    ****   //Route PA0 to EXTI0
 501              		.loc 1 144 6 is_stmt 0 view .LVU143
 502 0062 A369     		ldr	r3, [r4, #24]
 144:Src/main.c    ****   //Route PA0 to EXTI0
 503              		.loc 1 144 16 view .LVU144
 504 0064 1343     		orrs	r3, r2
 505 0066 A361     		str	r3, [r4, #24]
 146:Src/main.c    ****   //Enable EXTI0 interrupt
 506              		.loc 1 146 3 is_stmt 1 view .LVU145
 146:Src/main.c    ****   //Enable EXTI0 interrupt
 507              		.loc 1 146 17 is_stmt 0 view .LVU146
 508 0068 134B     		ldr	r3, .L20+12
 509 006a DA68     		ldr	r2, [r3, #12]
 146:Src/main.c    ****   //Enable EXTI0 interrupt
 510              		.loc 1 146 21 view .LVU147
 511 006c DA60     		str	r2, [r3, #12]
ARM GAS  /var/folders/kr/g9ry2bg56g773797gdtkvvkw0000gn/T//ccqSoQTt.s 			page 15


 148:Src/main.c    ****   //Set EXTI0 interrupt priority to 1
 512              		.loc 1 148 3 is_stmt 1 view .LVU148
 513              	.LVL13:
 514              	.LBB8:
 515              	.LBI8:
 516              		.file 2 "Drivers/CMSIS/Include/core_cm0.h"
   1:Drivers/CMSIS/Include/core_cm0.h **** /**************************************************************************//**
   2:Drivers/CMSIS/Include/core_cm0.h ****  * @file     core_cm0.h
   3:Drivers/CMSIS/Include/core_cm0.h ****  * @brief    CMSIS Cortex-M0 Core Peripheral Access Layer Header File
   4:Drivers/CMSIS/Include/core_cm0.h ****  * @version  V5.0.5
   5:Drivers/CMSIS/Include/core_cm0.h ****  * @date     28. May 2018
   6:Drivers/CMSIS/Include/core_cm0.h ****  ******************************************************************************/
   7:Drivers/CMSIS/Include/core_cm0.h **** /*
   8:Drivers/CMSIS/Include/core_cm0.h ****  * Copyright (c) 2009-2018 Arm Limited. All rights reserved.
   9:Drivers/CMSIS/Include/core_cm0.h ****  *
  10:Drivers/CMSIS/Include/core_cm0.h ****  * SPDX-License-Identifier: Apache-2.0
  11:Drivers/CMSIS/Include/core_cm0.h ****  *
  12:Drivers/CMSIS/Include/core_cm0.h ****  * Licensed under the Apache License, Version 2.0 (the License); you may
  13:Drivers/CMSIS/Include/core_cm0.h ****  * not use this file except in compliance with the License.
  14:Drivers/CMSIS/Include/core_cm0.h ****  * You may obtain a copy of the License at
  15:Drivers/CMSIS/Include/core_cm0.h ****  *
  16:Drivers/CMSIS/Include/core_cm0.h ****  * www.apache.org/licenses/LICENSE-2.0
  17:Drivers/CMSIS/Include/core_cm0.h ****  *
  18:Drivers/CMSIS/Include/core_cm0.h ****  * Unless required by applicable law or agreed to in writing, software
  19:Drivers/CMSIS/Include/core_cm0.h ****  * distributed under the License is distributed on an AS IS BASIS, WITHOUT
  20:Drivers/CMSIS/Include/core_cm0.h ****  * WARRANTIES OR CONDITIONS OF ANY KIND, either express or implied.
  21:Drivers/CMSIS/Include/core_cm0.h ****  * See the License for the specific language governing permissions and
  22:Drivers/CMSIS/Include/core_cm0.h ****  * limitations under the License.
  23:Drivers/CMSIS/Include/core_cm0.h ****  */
  24:Drivers/CMSIS/Include/core_cm0.h **** 
  25:Drivers/CMSIS/Include/core_cm0.h **** #if   defined ( __ICCARM__ )
  26:Drivers/CMSIS/Include/core_cm0.h ****   #pragma system_include         /* treat file as system include file for MISRA check */
  27:Drivers/CMSIS/Include/core_cm0.h **** #elif defined (__clang__)
  28:Drivers/CMSIS/Include/core_cm0.h ****   #pragma clang system_header   /* treat file as system include file */
  29:Drivers/CMSIS/Include/core_cm0.h **** #endif
  30:Drivers/CMSIS/Include/core_cm0.h **** 
  31:Drivers/CMSIS/Include/core_cm0.h **** #ifndef __CORE_CM0_H_GENERIC
  32:Drivers/CMSIS/Include/core_cm0.h **** #define __CORE_CM0_H_GENERIC
  33:Drivers/CMSIS/Include/core_cm0.h **** 
  34:Drivers/CMSIS/Include/core_cm0.h **** #include <stdint.h>
  35:Drivers/CMSIS/Include/core_cm0.h **** 
  36:Drivers/CMSIS/Include/core_cm0.h **** #ifdef __cplusplus
  37:Drivers/CMSIS/Include/core_cm0.h ****  extern "C" {
  38:Drivers/CMSIS/Include/core_cm0.h **** #endif
  39:Drivers/CMSIS/Include/core_cm0.h **** 
  40:Drivers/CMSIS/Include/core_cm0.h **** /**
  41:Drivers/CMSIS/Include/core_cm0.h ****   \page CMSIS_MISRA_Exceptions  MISRA-C:2004 Compliance Exceptions
  42:Drivers/CMSIS/Include/core_cm0.h ****   CMSIS violates the following MISRA-C:2004 rules:
  43:Drivers/CMSIS/Include/core_cm0.h **** 
  44:Drivers/CMSIS/Include/core_cm0.h ****    \li Required Rule 8.5, object/function definition in header file.<br>
  45:Drivers/CMSIS/Include/core_cm0.h ****      Function definitions in header files are used to allow 'inlining'.
  46:Drivers/CMSIS/Include/core_cm0.h **** 
  47:Drivers/CMSIS/Include/core_cm0.h ****    \li Required Rule 18.4, declaration of union type or object of union type: '{...}'.<br>
  48:Drivers/CMSIS/Include/core_cm0.h ****      Unions are used for effective representation of core registers.
  49:Drivers/CMSIS/Include/core_cm0.h **** 
  50:Drivers/CMSIS/Include/core_cm0.h ****    \li Advisory Rule 19.7, Function-like macro defined.<br>
  51:Drivers/CMSIS/Include/core_cm0.h ****      Function-like macros are used to allow more efficient code.
ARM GAS  /var/folders/kr/g9ry2bg56g773797gdtkvvkw0000gn/T//ccqSoQTt.s 			page 16


  52:Drivers/CMSIS/Include/core_cm0.h ****  */
  53:Drivers/CMSIS/Include/core_cm0.h **** 
  54:Drivers/CMSIS/Include/core_cm0.h **** 
  55:Drivers/CMSIS/Include/core_cm0.h **** /*******************************************************************************
  56:Drivers/CMSIS/Include/core_cm0.h ****  *                 CMSIS definitions
  57:Drivers/CMSIS/Include/core_cm0.h ****  ******************************************************************************/
  58:Drivers/CMSIS/Include/core_cm0.h **** /**
  59:Drivers/CMSIS/Include/core_cm0.h ****   \ingroup Cortex_M0
  60:Drivers/CMSIS/Include/core_cm0.h ****   @{
  61:Drivers/CMSIS/Include/core_cm0.h ****  */
  62:Drivers/CMSIS/Include/core_cm0.h **** 
  63:Drivers/CMSIS/Include/core_cm0.h **** #include "cmsis_version.h"
  64:Drivers/CMSIS/Include/core_cm0.h ****  
  65:Drivers/CMSIS/Include/core_cm0.h **** /*  CMSIS CM0 definitions */
  66:Drivers/CMSIS/Include/core_cm0.h **** #define __CM0_CMSIS_VERSION_MAIN  (__CM_CMSIS_VERSION_MAIN)              /*!< \deprecated [31:16] C
  67:Drivers/CMSIS/Include/core_cm0.h **** #define __CM0_CMSIS_VERSION_SUB   (__CM_CMSIS_VERSION_SUB)               /*!< \deprecated [15:0]  C
  68:Drivers/CMSIS/Include/core_cm0.h **** #define __CM0_CMSIS_VERSION       ((__CM0_CMSIS_VERSION_MAIN << 16U) | \
  69:Drivers/CMSIS/Include/core_cm0.h ****                                     __CM0_CMSIS_VERSION_SUB           )  /*!< \deprecated CMSIS HAL
  70:Drivers/CMSIS/Include/core_cm0.h **** 
  71:Drivers/CMSIS/Include/core_cm0.h **** #define __CORTEX_M                (0U)                                   /*!< Cortex-M Core */
  72:Drivers/CMSIS/Include/core_cm0.h **** 
  73:Drivers/CMSIS/Include/core_cm0.h **** /** __FPU_USED indicates whether an FPU is used or not.
  74:Drivers/CMSIS/Include/core_cm0.h ****     This core does not support an FPU at all
  75:Drivers/CMSIS/Include/core_cm0.h **** */
  76:Drivers/CMSIS/Include/core_cm0.h **** #define __FPU_USED       0U
  77:Drivers/CMSIS/Include/core_cm0.h **** 
  78:Drivers/CMSIS/Include/core_cm0.h **** #if defined ( __CC_ARM )
  79:Drivers/CMSIS/Include/core_cm0.h ****   #if defined __TARGET_FPU_VFP
  80:Drivers/CMSIS/Include/core_cm0.h ****     #error "Compiler generates FPU instructions for a device without an FPU (check __FPU_PRESENT)"
  81:Drivers/CMSIS/Include/core_cm0.h ****   #endif
  82:Drivers/CMSIS/Include/core_cm0.h **** 
  83:Drivers/CMSIS/Include/core_cm0.h **** #elif defined (__ARMCC_VERSION) && (__ARMCC_VERSION >= 6010050)
  84:Drivers/CMSIS/Include/core_cm0.h ****   #if defined __ARM_PCS_VFP
  85:Drivers/CMSIS/Include/core_cm0.h ****     #error "Compiler generates FPU instructions for a device without an FPU (check __FPU_PRESENT)"
  86:Drivers/CMSIS/Include/core_cm0.h ****   #endif
  87:Drivers/CMSIS/Include/core_cm0.h **** 
  88:Drivers/CMSIS/Include/core_cm0.h **** #elif defined ( __GNUC__ )
  89:Drivers/CMSIS/Include/core_cm0.h ****   #if defined (__VFP_FP__) && !defined(__SOFTFP__)
  90:Drivers/CMSIS/Include/core_cm0.h ****     #error "Compiler generates FPU instructions for a device without an FPU (check __FPU_PRESENT)"
  91:Drivers/CMSIS/Include/core_cm0.h ****   #endif
  92:Drivers/CMSIS/Include/core_cm0.h **** 
  93:Drivers/CMSIS/Include/core_cm0.h **** #elif defined ( __ICCARM__ )
  94:Drivers/CMSIS/Include/core_cm0.h ****   #if defined __ARMVFP__
  95:Drivers/CMSIS/Include/core_cm0.h ****     #error "Compiler generates FPU instructions for a device without an FPU (check __FPU_PRESENT)"
  96:Drivers/CMSIS/Include/core_cm0.h ****   #endif
  97:Drivers/CMSIS/Include/core_cm0.h **** 
  98:Drivers/CMSIS/Include/core_cm0.h **** #elif defined ( __TI_ARM__ )
  99:Drivers/CMSIS/Include/core_cm0.h ****   #if defined __TI_VFP_SUPPORT__
 100:Drivers/CMSIS/Include/core_cm0.h ****     #error "Compiler generates FPU instructions for a device without an FPU (check __FPU_PRESENT)"
 101:Drivers/CMSIS/Include/core_cm0.h ****   #endif
 102:Drivers/CMSIS/Include/core_cm0.h **** 
 103:Drivers/CMSIS/Include/core_cm0.h **** #elif defined ( __TASKING__ )
 104:Drivers/CMSIS/Include/core_cm0.h ****   #if defined __FPU_VFP__
 105:Drivers/CMSIS/Include/core_cm0.h ****     #error "Compiler generates FPU instructions for a device without an FPU (check __FPU_PRESENT)"
 106:Drivers/CMSIS/Include/core_cm0.h ****   #endif
 107:Drivers/CMSIS/Include/core_cm0.h **** 
 108:Drivers/CMSIS/Include/core_cm0.h **** #elif defined ( __CSMC__ )
ARM GAS  /var/folders/kr/g9ry2bg56g773797gdtkvvkw0000gn/T//ccqSoQTt.s 			page 17


 109:Drivers/CMSIS/Include/core_cm0.h ****   #if ( __CSMC__ & 0x400U)
 110:Drivers/CMSIS/Include/core_cm0.h ****     #error "Compiler generates FPU instructions for a device without an FPU (check __FPU_PRESENT)"
 111:Drivers/CMSIS/Include/core_cm0.h ****   #endif
 112:Drivers/CMSIS/Include/core_cm0.h **** 
 113:Drivers/CMSIS/Include/core_cm0.h **** #endif
 114:Drivers/CMSIS/Include/core_cm0.h **** 
 115:Drivers/CMSIS/Include/core_cm0.h **** #include "cmsis_compiler.h"               /* CMSIS compiler specific defines */
 116:Drivers/CMSIS/Include/core_cm0.h **** 
 117:Drivers/CMSIS/Include/core_cm0.h **** 
 118:Drivers/CMSIS/Include/core_cm0.h **** #ifdef __cplusplus
 119:Drivers/CMSIS/Include/core_cm0.h **** }
 120:Drivers/CMSIS/Include/core_cm0.h **** #endif
 121:Drivers/CMSIS/Include/core_cm0.h **** 
 122:Drivers/CMSIS/Include/core_cm0.h **** #endif /* __CORE_CM0_H_GENERIC */
 123:Drivers/CMSIS/Include/core_cm0.h **** 
 124:Drivers/CMSIS/Include/core_cm0.h **** #ifndef __CMSIS_GENERIC
 125:Drivers/CMSIS/Include/core_cm0.h **** 
 126:Drivers/CMSIS/Include/core_cm0.h **** #ifndef __CORE_CM0_H_DEPENDANT
 127:Drivers/CMSIS/Include/core_cm0.h **** #define __CORE_CM0_H_DEPENDANT
 128:Drivers/CMSIS/Include/core_cm0.h **** 
 129:Drivers/CMSIS/Include/core_cm0.h **** #ifdef __cplusplus
 130:Drivers/CMSIS/Include/core_cm0.h ****  extern "C" {
 131:Drivers/CMSIS/Include/core_cm0.h **** #endif
 132:Drivers/CMSIS/Include/core_cm0.h **** 
 133:Drivers/CMSIS/Include/core_cm0.h **** /* check device defines and use defaults */
 134:Drivers/CMSIS/Include/core_cm0.h **** #if defined __CHECK_DEVICE_DEFINES
 135:Drivers/CMSIS/Include/core_cm0.h ****   #ifndef __CM0_REV
 136:Drivers/CMSIS/Include/core_cm0.h ****     #define __CM0_REV               0x0000U
 137:Drivers/CMSIS/Include/core_cm0.h ****     #warning "__CM0_REV not defined in device header file; using default!"
 138:Drivers/CMSIS/Include/core_cm0.h ****   #endif
 139:Drivers/CMSIS/Include/core_cm0.h **** 
 140:Drivers/CMSIS/Include/core_cm0.h ****   #ifndef __NVIC_PRIO_BITS
 141:Drivers/CMSIS/Include/core_cm0.h ****     #define __NVIC_PRIO_BITS          2U
 142:Drivers/CMSIS/Include/core_cm0.h ****     #warning "__NVIC_PRIO_BITS not defined in device header file; using default!"
 143:Drivers/CMSIS/Include/core_cm0.h ****   #endif
 144:Drivers/CMSIS/Include/core_cm0.h **** 
 145:Drivers/CMSIS/Include/core_cm0.h ****   #ifndef __Vendor_SysTickConfig
 146:Drivers/CMSIS/Include/core_cm0.h ****     #define __Vendor_SysTickConfig    0U
 147:Drivers/CMSIS/Include/core_cm0.h ****     #warning "__Vendor_SysTickConfig not defined in device header file; using default!"
 148:Drivers/CMSIS/Include/core_cm0.h ****   #endif
 149:Drivers/CMSIS/Include/core_cm0.h **** #endif
 150:Drivers/CMSIS/Include/core_cm0.h **** 
 151:Drivers/CMSIS/Include/core_cm0.h **** /* IO definitions (access restrictions to peripheral registers) */
 152:Drivers/CMSIS/Include/core_cm0.h **** /**
 153:Drivers/CMSIS/Include/core_cm0.h ****     \defgroup CMSIS_glob_defs CMSIS Global Defines
 154:Drivers/CMSIS/Include/core_cm0.h **** 
 155:Drivers/CMSIS/Include/core_cm0.h ****     <strong>IO Type Qualifiers</strong> are used
 156:Drivers/CMSIS/Include/core_cm0.h ****     \li to specify the access to peripheral variables.
 157:Drivers/CMSIS/Include/core_cm0.h ****     \li for automatic generation of peripheral register debug information.
 158:Drivers/CMSIS/Include/core_cm0.h **** */
 159:Drivers/CMSIS/Include/core_cm0.h **** #ifdef __cplusplus
 160:Drivers/CMSIS/Include/core_cm0.h ****   #define   __I     volatile             /*!< Defines 'read only' permissions */
 161:Drivers/CMSIS/Include/core_cm0.h **** #else
 162:Drivers/CMSIS/Include/core_cm0.h ****   #define   __I     volatile const       /*!< Defines 'read only' permissions */
 163:Drivers/CMSIS/Include/core_cm0.h **** #endif
 164:Drivers/CMSIS/Include/core_cm0.h **** #define     __O     volatile             /*!< Defines 'write only' permissions */
 165:Drivers/CMSIS/Include/core_cm0.h **** #define     __IO    volatile             /*!< Defines 'read / write' permissions */
ARM GAS  /var/folders/kr/g9ry2bg56g773797gdtkvvkw0000gn/T//ccqSoQTt.s 			page 18


 166:Drivers/CMSIS/Include/core_cm0.h **** 
 167:Drivers/CMSIS/Include/core_cm0.h **** /* following defines should be used for structure members */
 168:Drivers/CMSIS/Include/core_cm0.h **** #define     __IM     volatile const      /*! Defines 'read only' structure member permissions */
 169:Drivers/CMSIS/Include/core_cm0.h **** #define     __OM     volatile            /*! Defines 'write only' structure member permissions */
 170:Drivers/CMSIS/Include/core_cm0.h **** #define     __IOM    volatile            /*! Defines 'read / write' structure member permissions */
 171:Drivers/CMSIS/Include/core_cm0.h **** 
 172:Drivers/CMSIS/Include/core_cm0.h **** /*@} end of group Cortex_M0 */
 173:Drivers/CMSIS/Include/core_cm0.h **** 
 174:Drivers/CMSIS/Include/core_cm0.h **** 
 175:Drivers/CMSIS/Include/core_cm0.h **** 
 176:Drivers/CMSIS/Include/core_cm0.h **** /*******************************************************************************
 177:Drivers/CMSIS/Include/core_cm0.h ****  *                 Register Abstraction
 178:Drivers/CMSIS/Include/core_cm0.h ****   Core Register contain:
 179:Drivers/CMSIS/Include/core_cm0.h ****   - Core Register
 180:Drivers/CMSIS/Include/core_cm0.h ****   - Core NVIC Register
 181:Drivers/CMSIS/Include/core_cm0.h ****   - Core SCB Register
 182:Drivers/CMSIS/Include/core_cm0.h ****   - Core SysTick Register
 183:Drivers/CMSIS/Include/core_cm0.h ****  ******************************************************************************/
 184:Drivers/CMSIS/Include/core_cm0.h **** /**
 185:Drivers/CMSIS/Include/core_cm0.h ****   \defgroup CMSIS_core_register Defines and Type Definitions
 186:Drivers/CMSIS/Include/core_cm0.h ****   \brief Type definitions and defines for Cortex-M processor based devices.
 187:Drivers/CMSIS/Include/core_cm0.h **** */
 188:Drivers/CMSIS/Include/core_cm0.h **** 
 189:Drivers/CMSIS/Include/core_cm0.h **** /**
 190:Drivers/CMSIS/Include/core_cm0.h ****   \ingroup    CMSIS_core_register
 191:Drivers/CMSIS/Include/core_cm0.h ****   \defgroup   CMSIS_CORE  Status and Control Registers
 192:Drivers/CMSIS/Include/core_cm0.h ****   \brief      Core Register type definitions.
 193:Drivers/CMSIS/Include/core_cm0.h ****   @{
 194:Drivers/CMSIS/Include/core_cm0.h ****  */
 195:Drivers/CMSIS/Include/core_cm0.h **** 
 196:Drivers/CMSIS/Include/core_cm0.h **** /**
 197:Drivers/CMSIS/Include/core_cm0.h ****   \brief  Union type to access the Application Program Status Register (APSR).
 198:Drivers/CMSIS/Include/core_cm0.h ****  */
 199:Drivers/CMSIS/Include/core_cm0.h **** typedef union
 200:Drivers/CMSIS/Include/core_cm0.h **** {
 201:Drivers/CMSIS/Include/core_cm0.h ****   struct
 202:Drivers/CMSIS/Include/core_cm0.h ****   {
 203:Drivers/CMSIS/Include/core_cm0.h ****     uint32_t _reserved0:28;              /*!< bit:  0..27  Reserved */
 204:Drivers/CMSIS/Include/core_cm0.h ****     uint32_t V:1;                        /*!< bit:     28  Overflow condition code flag */
 205:Drivers/CMSIS/Include/core_cm0.h ****     uint32_t C:1;                        /*!< bit:     29  Carry condition code flag */
 206:Drivers/CMSIS/Include/core_cm0.h ****     uint32_t Z:1;                        /*!< bit:     30  Zero condition code flag */
 207:Drivers/CMSIS/Include/core_cm0.h ****     uint32_t N:1;                        /*!< bit:     31  Negative condition code flag */
 208:Drivers/CMSIS/Include/core_cm0.h ****   } b;                                   /*!< Structure used for bit  access */
 209:Drivers/CMSIS/Include/core_cm0.h ****   uint32_t w;                            /*!< Type      used for word access */
 210:Drivers/CMSIS/Include/core_cm0.h **** } APSR_Type;
 211:Drivers/CMSIS/Include/core_cm0.h **** 
 212:Drivers/CMSIS/Include/core_cm0.h **** /* APSR Register Definitions */
 213:Drivers/CMSIS/Include/core_cm0.h **** #define APSR_N_Pos                         31U                                            /*!< APSR
 214:Drivers/CMSIS/Include/core_cm0.h **** #define APSR_N_Msk                         (1UL << APSR_N_Pos)                            /*!< APSR
 215:Drivers/CMSIS/Include/core_cm0.h **** 
 216:Drivers/CMSIS/Include/core_cm0.h **** #define APSR_Z_Pos                         30U                                            /*!< APSR
 217:Drivers/CMSIS/Include/core_cm0.h **** #define APSR_Z_Msk                         (1UL << APSR_Z_Pos)                            /*!< APSR
 218:Drivers/CMSIS/Include/core_cm0.h **** 
 219:Drivers/CMSIS/Include/core_cm0.h **** #define APSR_C_Pos                         29U                                            /*!< APSR
 220:Drivers/CMSIS/Include/core_cm0.h **** #define APSR_C_Msk                         (1UL << APSR_C_Pos)                            /*!< APSR
 221:Drivers/CMSIS/Include/core_cm0.h **** 
 222:Drivers/CMSIS/Include/core_cm0.h **** #define APSR_V_Pos                         28U                                            /*!< APSR
ARM GAS  /var/folders/kr/g9ry2bg56g773797gdtkvvkw0000gn/T//ccqSoQTt.s 			page 19


 223:Drivers/CMSIS/Include/core_cm0.h **** #define APSR_V_Msk                         (1UL << APSR_V_Pos)                            /*!< APSR
 224:Drivers/CMSIS/Include/core_cm0.h **** 
 225:Drivers/CMSIS/Include/core_cm0.h **** 
 226:Drivers/CMSIS/Include/core_cm0.h **** /**
 227:Drivers/CMSIS/Include/core_cm0.h ****   \brief  Union type to access the Interrupt Program Status Register (IPSR).
 228:Drivers/CMSIS/Include/core_cm0.h ****  */
 229:Drivers/CMSIS/Include/core_cm0.h **** typedef union
 230:Drivers/CMSIS/Include/core_cm0.h **** {
 231:Drivers/CMSIS/Include/core_cm0.h ****   struct
 232:Drivers/CMSIS/Include/core_cm0.h ****   {
 233:Drivers/CMSIS/Include/core_cm0.h ****     uint32_t ISR:9;                      /*!< bit:  0.. 8  Exception number */
 234:Drivers/CMSIS/Include/core_cm0.h ****     uint32_t _reserved0:23;              /*!< bit:  9..31  Reserved */
 235:Drivers/CMSIS/Include/core_cm0.h ****   } b;                                   /*!< Structure used for bit  access */
 236:Drivers/CMSIS/Include/core_cm0.h ****   uint32_t w;                            /*!< Type      used for word access */
 237:Drivers/CMSIS/Include/core_cm0.h **** } IPSR_Type;
 238:Drivers/CMSIS/Include/core_cm0.h **** 
 239:Drivers/CMSIS/Include/core_cm0.h **** /* IPSR Register Definitions */
 240:Drivers/CMSIS/Include/core_cm0.h **** #define IPSR_ISR_Pos                        0U                                            /*!< IPSR
 241:Drivers/CMSIS/Include/core_cm0.h **** #define IPSR_ISR_Msk                       (0x1FFUL /*<< IPSR_ISR_Pos*/)                  /*!< IPSR
 242:Drivers/CMSIS/Include/core_cm0.h **** 
 243:Drivers/CMSIS/Include/core_cm0.h **** 
 244:Drivers/CMSIS/Include/core_cm0.h **** /**
 245:Drivers/CMSIS/Include/core_cm0.h ****   \brief  Union type to access the Special-Purpose Program Status Registers (xPSR).
 246:Drivers/CMSIS/Include/core_cm0.h ****  */
 247:Drivers/CMSIS/Include/core_cm0.h **** typedef union
 248:Drivers/CMSIS/Include/core_cm0.h **** {
 249:Drivers/CMSIS/Include/core_cm0.h ****   struct
 250:Drivers/CMSIS/Include/core_cm0.h ****   {
 251:Drivers/CMSIS/Include/core_cm0.h ****     uint32_t ISR:9;                      /*!< bit:  0.. 8  Exception number */
 252:Drivers/CMSIS/Include/core_cm0.h ****     uint32_t _reserved0:15;              /*!< bit:  9..23  Reserved */
 253:Drivers/CMSIS/Include/core_cm0.h ****     uint32_t T:1;                        /*!< bit:     24  Thumb bit        (read 0) */
 254:Drivers/CMSIS/Include/core_cm0.h ****     uint32_t _reserved1:3;               /*!< bit: 25..27  Reserved */
 255:Drivers/CMSIS/Include/core_cm0.h ****     uint32_t V:1;                        /*!< bit:     28  Overflow condition code flag */
 256:Drivers/CMSIS/Include/core_cm0.h ****     uint32_t C:1;                        /*!< bit:     29  Carry condition code flag */
 257:Drivers/CMSIS/Include/core_cm0.h ****     uint32_t Z:1;                        /*!< bit:     30  Zero condition code flag */
 258:Drivers/CMSIS/Include/core_cm0.h ****     uint32_t N:1;                        /*!< bit:     31  Negative condition code flag */
 259:Drivers/CMSIS/Include/core_cm0.h ****   } b;                                   /*!< Structure used for bit  access */
 260:Drivers/CMSIS/Include/core_cm0.h ****   uint32_t w;                            /*!< Type      used for word access */
 261:Drivers/CMSIS/Include/core_cm0.h **** } xPSR_Type;
 262:Drivers/CMSIS/Include/core_cm0.h **** 
 263:Drivers/CMSIS/Include/core_cm0.h **** /* xPSR Register Definitions */
 264:Drivers/CMSIS/Include/core_cm0.h **** #define xPSR_N_Pos                         31U                                            /*!< xPSR
 265:Drivers/CMSIS/Include/core_cm0.h **** #define xPSR_N_Msk                         (1UL << xPSR_N_Pos)                            /*!< xPSR
 266:Drivers/CMSIS/Include/core_cm0.h **** 
 267:Drivers/CMSIS/Include/core_cm0.h **** #define xPSR_Z_Pos                         30U                                            /*!< xPSR
 268:Drivers/CMSIS/Include/core_cm0.h **** #define xPSR_Z_Msk                         (1UL << xPSR_Z_Pos)                            /*!< xPSR
 269:Drivers/CMSIS/Include/core_cm0.h **** 
 270:Drivers/CMSIS/Include/core_cm0.h **** #define xPSR_C_Pos                         29U                                            /*!< xPSR
 271:Drivers/CMSIS/Include/core_cm0.h **** #define xPSR_C_Msk                         (1UL << xPSR_C_Pos)                            /*!< xPSR
 272:Drivers/CMSIS/Include/core_cm0.h **** 
 273:Drivers/CMSIS/Include/core_cm0.h **** #define xPSR_V_Pos                         28U                                            /*!< xPSR
 274:Drivers/CMSIS/Include/core_cm0.h **** #define xPSR_V_Msk                         (1UL << xPSR_V_Pos)                            /*!< xPSR
 275:Drivers/CMSIS/Include/core_cm0.h **** 
 276:Drivers/CMSIS/Include/core_cm0.h **** #define xPSR_T_Pos                         24U                                            /*!< xPSR
 277:Drivers/CMSIS/Include/core_cm0.h **** #define xPSR_T_Msk                         (1UL << xPSR_T_Pos)                            /*!< xPSR
 278:Drivers/CMSIS/Include/core_cm0.h **** 
 279:Drivers/CMSIS/Include/core_cm0.h **** #define xPSR_ISR_Pos                        0U                                            /*!< xPSR
ARM GAS  /var/folders/kr/g9ry2bg56g773797gdtkvvkw0000gn/T//ccqSoQTt.s 			page 20


 280:Drivers/CMSIS/Include/core_cm0.h **** #define xPSR_ISR_Msk                       (0x1FFUL /*<< xPSR_ISR_Pos*/)                  /*!< xPSR
 281:Drivers/CMSIS/Include/core_cm0.h **** 
 282:Drivers/CMSIS/Include/core_cm0.h **** 
 283:Drivers/CMSIS/Include/core_cm0.h **** /**
 284:Drivers/CMSIS/Include/core_cm0.h ****   \brief  Union type to access the Control Registers (CONTROL).
 285:Drivers/CMSIS/Include/core_cm0.h ****  */
 286:Drivers/CMSIS/Include/core_cm0.h **** typedef union
 287:Drivers/CMSIS/Include/core_cm0.h **** {
 288:Drivers/CMSIS/Include/core_cm0.h ****   struct
 289:Drivers/CMSIS/Include/core_cm0.h ****   {
 290:Drivers/CMSIS/Include/core_cm0.h ****     uint32_t _reserved0:1;               /*!< bit:      0  Reserved */
 291:Drivers/CMSIS/Include/core_cm0.h ****     uint32_t SPSEL:1;                    /*!< bit:      1  Stack to be used */
 292:Drivers/CMSIS/Include/core_cm0.h ****     uint32_t _reserved1:30;              /*!< bit:  2..31  Reserved */
 293:Drivers/CMSIS/Include/core_cm0.h ****   } b;                                   /*!< Structure used for bit  access */
 294:Drivers/CMSIS/Include/core_cm0.h ****   uint32_t w;                            /*!< Type      used for word access */
 295:Drivers/CMSIS/Include/core_cm0.h **** } CONTROL_Type;
 296:Drivers/CMSIS/Include/core_cm0.h **** 
 297:Drivers/CMSIS/Include/core_cm0.h **** /* CONTROL Register Definitions */
 298:Drivers/CMSIS/Include/core_cm0.h **** #define CONTROL_SPSEL_Pos                   1U                                            /*!< CONT
 299:Drivers/CMSIS/Include/core_cm0.h **** #define CONTROL_SPSEL_Msk                  (1UL << CONTROL_SPSEL_Pos)                     /*!< CONT
 300:Drivers/CMSIS/Include/core_cm0.h **** 
 301:Drivers/CMSIS/Include/core_cm0.h **** /*@} end of group CMSIS_CORE */
 302:Drivers/CMSIS/Include/core_cm0.h **** 
 303:Drivers/CMSIS/Include/core_cm0.h **** 
 304:Drivers/CMSIS/Include/core_cm0.h **** /**
 305:Drivers/CMSIS/Include/core_cm0.h ****   \ingroup    CMSIS_core_register
 306:Drivers/CMSIS/Include/core_cm0.h ****   \defgroup   CMSIS_NVIC  Nested Vectored Interrupt Controller (NVIC)
 307:Drivers/CMSIS/Include/core_cm0.h ****   \brief      Type definitions for the NVIC Registers
 308:Drivers/CMSIS/Include/core_cm0.h ****   @{
 309:Drivers/CMSIS/Include/core_cm0.h ****  */
 310:Drivers/CMSIS/Include/core_cm0.h **** 
 311:Drivers/CMSIS/Include/core_cm0.h **** /**
 312:Drivers/CMSIS/Include/core_cm0.h ****   \brief  Structure type to access the Nested Vectored Interrupt Controller (NVIC).
 313:Drivers/CMSIS/Include/core_cm0.h ****  */
 314:Drivers/CMSIS/Include/core_cm0.h **** typedef struct
 315:Drivers/CMSIS/Include/core_cm0.h **** {
 316:Drivers/CMSIS/Include/core_cm0.h ****   __IOM uint32_t ISER[1U];               /*!< Offset: 0x000 (R/W)  Interrupt Set Enable Register */
 317:Drivers/CMSIS/Include/core_cm0.h ****         uint32_t RESERVED0[31U];
 318:Drivers/CMSIS/Include/core_cm0.h ****   __IOM uint32_t ICER[1U];               /*!< Offset: 0x080 (R/W)  Interrupt Clear Enable Register 
 319:Drivers/CMSIS/Include/core_cm0.h ****         uint32_t RSERVED1[31U];
 320:Drivers/CMSIS/Include/core_cm0.h ****   __IOM uint32_t ISPR[1U];               /*!< Offset: 0x100 (R/W)  Interrupt Set Pending Register *
 321:Drivers/CMSIS/Include/core_cm0.h ****         uint32_t RESERVED2[31U];
 322:Drivers/CMSIS/Include/core_cm0.h ****   __IOM uint32_t ICPR[1U];               /*!< Offset: 0x180 (R/W)  Interrupt Clear Pending Register
 323:Drivers/CMSIS/Include/core_cm0.h ****         uint32_t RESERVED3[31U];
 324:Drivers/CMSIS/Include/core_cm0.h ****         uint32_t RESERVED4[64U];
 325:Drivers/CMSIS/Include/core_cm0.h ****   __IOM uint32_t IP[8U];                 /*!< Offset: 0x300 (R/W)  Interrupt Priority Register */
 326:Drivers/CMSIS/Include/core_cm0.h **** }  NVIC_Type;
 327:Drivers/CMSIS/Include/core_cm0.h **** 
 328:Drivers/CMSIS/Include/core_cm0.h **** /*@} end of group CMSIS_NVIC */
 329:Drivers/CMSIS/Include/core_cm0.h **** 
 330:Drivers/CMSIS/Include/core_cm0.h **** 
 331:Drivers/CMSIS/Include/core_cm0.h **** /**
 332:Drivers/CMSIS/Include/core_cm0.h ****   \ingroup  CMSIS_core_register
 333:Drivers/CMSIS/Include/core_cm0.h ****   \defgroup CMSIS_SCB     System Control Block (SCB)
 334:Drivers/CMSIS/Include/core_cm0.h ****   \brief    Type definitions for the System Control Block Registers
 335:Drivers/CMSIS/Include/core_cm0.h ****   @{
 336:Drivers/CMSIS/Include/core_cm0.h ****  */
ARM GAS  /var/folders/kr/g9ry2bg56g773797gdtkvvkw0000gn/T//ccqSoQTt.s 			page 21


 337:Drivers/CMSIS/Include/core_cm0.h **** 
 338:Drivers/CMSIS/Include/core_cm0.h **** /**
 339:Drivers/CMSIS/Include/core_cm0.h ****   \brief  Structure type to access the System Control Block (SCB).
 340:Drivers/CMSIS/Include/core_cm0.h ****  */
 341:Drivers/CMSIS/Include/core_cm0.h **** typedef struct
 342:Drivers/CMSIS/Include/core_cm0.h **** {
 343:Drivers/CMSIS/Include/core_cm0.h ****   __IM  uint32_t CPUID;                  /*!< Offset: 0x000 (R/ )  CPUID Base Register */
 344:Drivers/CMSIS/Include/core_cm0.h ****   __IOM uint32_t ICSR;                   /*!< Offset: 0x004 (R/W)  Interrupt Control and State Regi
 345:Drivers/CMSIS/Include/core_cm0.h ****         uint32_t RESERVED0;
 346:Drivers/CMSIS/Include/core_cm0.h ****   __IOM uint32_t AIRCR;                  /*!< Offset: 0x00C (R/W)  Application Interrupt and Reset 
 347:Drivers/CMSIS/Include/core_cm0.h ****   __IOM uint32_t SCR;                    /*!< Offset: 0x010 (R/W)  System Control Register */
 348:Drivers/CMSIS/Include/core_cm0.h ****   __IOM uint32_t CCR;                    /*!< Offset: 0x014 (R/W)  Configuration Control Register *
 349:Drivers/CMSIS/Include/core_cm0.h ****         uint32_t RESERVED1;
 350:Drivers/CMSIS/Include/core_cm0.h ****   __IOM uint32_t SHP[2U];                /*!< Offset: 0x01C (R/W)  System Handlers Priority Registe
 351:Drivers/CMSIS/Include/core_cm0.h ****   __IOM uint32_t SHCSR;                  /*!< Offset: 0x024 (R/W)  System Handler Control and State
 352:Drivers/CMSIS/Include/core_cm0.h **** } SCB_Type;
 353:Drivers/CMSIS/Include/core_cm0.h **** 
 354:Drivers/CMSIS/Include/core_cm0.h **** /* SCB CPUID Register Definitions */
 355:Drivers/CMSIS/Include/core_cm0.h **** #define SCB_CPUID_IMPLEMENTER_Pos          24U                                            /*!< SCB 
 356:Drivers/CMSIS/Include/core_cm0.h **** #define SCB_CPUID_IMPLEMENTER_Msk          (0xFFUL << SCB_CPUID_IMPLEMENTER_Pos)          /*!< SCB 
 357:Drivers/CMSIS/Include/core_cm0.h **** 
 358:Drivers/CMSIS/Include/core_cm0.h **** #define SCB_CPUID_VARIANT_Pos              20U                                            /*!< SCB 
 359:Drivers/CMSIS/Include/core_cm0.h **** #define SCB_CPUID_VARIANT_Msk              (0xFUL << SCB_CPUID_VARIANT_Pos)               /*!< SCB 
 360:Drivers/CMSIS/Include/core_cm0.h **** 
 361:Drivers/CMSIS/Include/core_cm0.h **** #define SCB_CPUID_ARCHITECTURE_Pos         16U                                            /*!< SCB 
 362:Drivers/CMSIS/Include/core_cm0.h **** #define SCB_CPUID_ARCHITECTURE_Msk         (0xFUL << SCB_CPUID_ARCHITECTURE_Pos)          /*!< SCB 
 363:Drivers/CMSIS/Include/core_cm0.h **** 
 364:Drivers/CMSIS/Include/core_cm0.h **** #define SCB_CPUID_PARTNO_Pos                4U                                            /*!< SCB 
 365:Drivers/CMSIS/Include/core_cm0.h **** #define SCB_CPUID_PARTNO_Msk               (0xFFFUL << SCB_CPUID_PARTNO_Pos)              /*!< SCB 
 366:Drivers/CMSIS/Include/core_cm0.h **** 
 367:Drivers/CMSIS/Include/core_cm0.h **** #define SCB_CPUID_REVISION_Pos              0U                                            /*!< SCB 
 368:Drivers/CMSIS/Include/core_cm0.h **** #define SCB_CPUID_REVISION_Msk             (0xFUL /*<< SCB_CPUID_REVISION_Pos*/)          /*!< SCB 
 369:Drivers/CMSIS/Include/core_cm0.h **** 
 370:Drivers/CMSIS/Include/core_cm0.h **** /* SCB Interrupt Control State Register Definitions */
 371:Drivers/CMSIS/Include/core_cm0.h **** #define SCB_ICSR_NMIPENDSET_Pos            31U                                            /*!< SCB 
 372:Drivers/CMSIS/Include/core_cm0.h **** #define SCB_ICSR_NMIPENDSET_Msk            (1UL << SCB_ICSR_NMIPENDSET_Pos)               /*!< SCB 
 373:Drivers/CMSIS/Include/core_cm0.h **** 
 374:Drivers/CMSIS/Include/core_cm0.h **** #define SCB_ICSR_PENDSVSET_Pos             28U                                            /*!< SCB 
 375:Drivers/CMSIS/Include/core_cm0.h **** #define SCB_ICSR_PENDSVSET_Msk             (1UL << SCB_ICSR_PENDSVSET_Pos)                /*!< SCB 
 376:Drivers/CMSIS/Include/core_cm0.h **** 
 377:Drivers/CMSIS/Include/core_cm0.h **** #define SCB_ICSR_PENDSVCLR_Pos             27U                                            /*!< SCB 
 378:Drivers/CMSIS/Include/core_cm0.h **** #define SCB_ICSR_PENDSVCLR_Msk             (1UL << SCB_ICSR_PENDSVCLR_Pos)                /*!< SCB 
 379:Drivers/CMSIS/Include/core_cm0.h **** 
 380:Drivers/CMSIS/Include/core_cm0.h **** #define SCB_ICSR_PENDSTSET_Pos             26U                                            /*!< SCB 
 381:Drivers/CMSIS/Include/core_cm0.h **** #define SCB_ICSR_PENDSTSET_Msk             (1UL << SCB_ICSR_PENDSTSET_Pos)                /*!< SCB 
 382:Drivers/CMSIS/Include/core_cm0.h **** 
 383:Drivers/CMSIS/Include/core_cm0.h **** #define SCB_ICSR_PENDSTCLR_Pos             25U                                            /*!< SCB 
 384:Drivers/CMSIS/Include/core_cm0.h **** #define SCB_ICSR_PENDSTCLR_Msk             (1UL << SCB_ICSR_PENDSTCLR_Pos)                /*!< SCB 
 385:Drivers/CMSIS/Include/core_cm0.h **** 
 386:Drivers/CMSIS/Include/core_cm0.h **** #define SCB_ICSR_ISRPREEMPT_Pos            23U                                            /*!< SCB 
 387:Drivers/CMSIS/Include/core_cm0.h **** #define SCB_ICSR_ISRPREEMPT_Msk            (1UL << SCB_ICSR_ISRPREEMPT_Pos)               /*!< SCB 
 388:Drivers/CMSIS/Include/core_cm0.h **** 
 389:Drivers/CMSIS/Include/core_cm0.h **** #define SCB_ICSR_ISRPENDING_Pos            22U                                            /*!< SCB 
 390:Drivers/CMSIS/Include/core_cm0.h **** #define SCB_ICSR_ISRPENDING_Msk            (1UL << SCB_ICSR_ISRPENDING_Pos)               /*!< SCB 
 391:Drivers/CMSIS/Include/core_cm0.h **** 
 392:Drivers/CMSIS/Include/core_cm0.h **** #define SCB_ICSR_VECTPENDING_Pos           12U                                            /*!< SCB 
 393:Drivers/CMSIS/Include/core_cm0.h **** #define SCB_ICSR_VECTPENDING_Msk           (0x1FFUL << SCB_ICSR_VECTPENDING_Pos)          /*!< SCB 
ARM GAS  /var/folders/kr/g9ry2bg56g773797gdtkvvkw0000gn/T//ccqSoQTt.s 			page 22


 394:Drivers/CMSIS/Include/core_cm0.h **** 
 395:Drivers/CMSIS/Include/core_cm0.h **** #define SCB_ICSR_VECTACTIVE_Pos             0U                                            /*!< SCB 
 396:Drivers/CMSIS/Include/core_cm0.h **** #define SCB_ICSR_VECTACTIVE_Msk            (0x1FFUL /*<< SCB_ICSR_VECTACTIVE_Pos*/)       /*!< SCB 
 397:Drivers/CMSIS/Include/core_cm0.h **** 
 398:Drivers/CMSIS/Include/core_cm0.h **** /* SCB Application Interrupt and Reset Control Register Definitions */
 399:Drivers/CMSIS/Include/core_cm0.h **** #define SCB_AIRCR_VECTKEY_Pos              16U                                            /*!< SCB 
 400:Drivers/CMSIS/Include/core_cm0.h **** #define SCB_AIRCR_VECTKEY_Msk              (0xFFFFUL << SCB_AIRCR_VECTKEY_Pos)            /*!< SCB 
 401:Drivers/CMSIS/Include/core_cm0.h **** 
 402:Drivers/CMSIS/Include/core_cm0.h **** #define SCB_AIRCR_VECTKEYSTAT_Pos          16U                                            /*!< SCB 
 403:Drivers/CMSIS/Include/core_cm0.h **** #define SCB_AIRCR_VECTKEYSTAT_Msk          (0xFFFFUL << SCB_AIRCR_VECTKEYSTAT_Pos)        /*!< SCB 
 404:Drivers/CMSIS/Include/core_cm0.h **** 
 405:Drivers/CMSIS/Include/core_cm0.h **** #define SCB_AIRCR_ENDIANESS_Pos            15U                                            /*!< SCB 
 406:Drivers/CMSIS/Include/core_cm0.h **** #define SCB_AIRCR_ENDIANESS_Msk            (1UL << SCB_AIRCR_ENDIANESS_Pos)               /*!< SCB 
 407:Drivers/CMSIS/Include/core_cm0.h **** 
 408:Drivers/CMSIS/Include/core_cm0.h **** #define SCB_AIRCR_SYSRESETREQ_Pos           2U                                            /*!< SCB 
 409:Drivers/CMSIS/Include/core_cm0.h **** #define SCB_AIRCR_SYSRESETREQ_Msk          (1UL << SCB_AIRCR_SYSRESETREQ_Pos)             /*!< SCB 
 410:Drivers/CMSIS/Include/core_cm0.h **** 
 411:Drivers/CMSIS/Include/core_cm0.h **** #define SCB_AIRCR_VECTCLRACTIVE_Pos         1U                                            /*!< SCB 
 412:Drivers/CMSIS/Include/core_cm0.h **** #define SCB_AIRCR_VECTCLRACTIVE_Msk        (1UL << SCB_AIRCR_VECTCLRACTIVE_Pos)           /*!< SCB 
 413:Drivers/CMSIS/Include/core_cm0.h **** 
 414:Drivers/CMSIS/Include/core_cm0.h **** /* SCB System Control Register Definitions */
 415:Drivers/CMSIS/Include/core_cm0.h **** #define SCB_SCR_SEVONPEND_Pos               4U                                            /*!< SCB 
 416:Drivers/CMSIS/Include/core_cm0.h **** #define SCB_SCR_SEVONPEND_Msk              (1UL << SCB_SCR_SEVONPEND_Pos)                 /*!< SCB 
 417:Drivers/CMSIS/Include/core_cm0.h **** 
 418:Drivers/CMSIS/Include/core_cm0.h **** #define SCB_SCR_SLEEPDEEP_Pos               2U                                            /*!< SCB 
 419:Drivers/CMSIS/Include/core_cm0.h **** #define SCB_SCR_SLEEPDEEP_Msk              (1UL << SCB_SCR_SLEEPDEEP_Pos)                 /*!< SCB 
 420:Drivers/CMSIS/Include/core_cm0.h **** 
 421:Drivers/CMSIS/Include/core_cm0.h **** #define SCB_SCR_SLEEPONEXIT_Pos             1U                                            /*!< SCB 
 422:Drivers/CMSIS/Include/core_cm0.h **** #define SCB_SCR_SLEEPONEXIT_Msk            (1UL << SCB_SCR_SLEEPONEXIT_Pos)               /*!< SCB 
 423:Drivers/CMSIS/Include/core_cm0.h **** 
 424:Drivers/CMSIS/Include/core_cm0.h **** /* SCB Configuration Control Register Definitions */
 425:Drivers/CMSIS/Include/core_cm0.h **** #define SCB_CCR_STKALIGN_Pos                9U                                            /*!< SCB 
 426:Drivers/CMSIS/Include/core_cm0.h **** #define SCB_CCR_STKALIGN_Msk               (1UL << SCB_CCR_STKALIGN_Pos)                  /*!< SCB 
 427:Drivers/CMSIS/Include/core_cm0.h **** 
 428:Drivers/CMSIS/Include/core_cm0.h **** #define SCB_CCR_UNALIGN_TRP_Pos             3U                                            /*!< SCB 
 429:Drivers/CMSIS/Include/core_cm0.h **** #define SCB_CCR_UNALIGN_TRP_Msk            (1UL << SCB_CCR_UNALIGN_TRP_Pos)               /*!< SCB 
 430:Drivers/CMSIS/Include/core_cm0.h **** 
 431:Drivers/CMSIS/Include/core_cm0.h **** /* SCB System Handler Control and State Register Definitions */
 432:Drivers/CMSIS/Include/core_cm0.h **** #define SCB_SHCSR_SVCALLPENDED_Pos         15U                                            /*!< SCB 
 433:Drivers/CMSIS/Include/core_cm0.h **** #define SCB_SHCSR_SVCALLPENDED_Msk         (1UL << SCB_SHCSR_SVCALLPENDED_Pos)            /*!< SCB 
 434:Drivers/CMSIS/Include/core_cm0.h **** 
 435:Drivers/CMSIS/Include/core_cm0.h **** /*@} end of group CMSIS_SCB */
 436:Drivers/CMSIS/Include/core_cm0.h **** 
 437:Drivers/CMSIS/Include/core_cm0.h **** 
 438:Drivers/CMSIS/Include/core_cm0.h **** /**
 439:Drivers/CMSIS/Include/core_cm0.h ****   \ingroup  CMSIS_core_register
 440:Drivers/CMSIS/Include/core_cm0.h ****   \defgroup CMSIS_SysTick     System Tick Timer (SysTick)
 441:Drivers/CMSIS/Include/core_cm0.h ****   \brief    Type definitions for the System Timer Registers.
 442:Drivers/CMSIS/Include/core_cm0.h ****   @{
 443:Drivers/CMSIS/Include/core_cm0.h ****  */
 444:Drivers/CMSIS/Include/core_cm0.h **** 
 445:Drivers/CMSIS/Include/core_cm0.h **** /**
 446:Drivers/CMSIS/Include/core_cm0.h ****   \brief  Structure type to access the System Timer (SysTick).
 447:Drivers/CMSIS/Include/core_cm0.h ****  */
 448:Drivers/CMSIS/Include/core_cm0.h **** typedef struct
 449:Drivers/CMSIS/Include/core_cm0.h **** {
 450:Drivers/CMSIS/Include/core_cm0.h ****   __IOM uint32_t CTRL;                   /*!< Offset: 0x000 (R/W)  SysTick Control and Status Regis
ARM GAS  /var/folders/kr/g9ry2bg56g773797gdtkvvkw0000gn/T//ccqSoQTt.s 			page 23


 451:Drivers/CMSIS/Include/core_cm0.h ****   __IOM uint32_t LOAD;                   /*!< Offset: 0x004 (R/W)  SysTick Reload Value Register */
 452:Drivers/CMSIS/Include/core_cm0.h ****   __IOM uint32_t VAL;                    /*!< Offset: 0x008 (R/W)  SysTick Current Value Register *
 453:Drivers/CMSIS/Include/core_cm0.h ****   __IM  uint32_t CALIB;                  /*!< Offset: 0x00C (R/ )  SysTick Calibration Register */
 454:Drivers/CMSIS/Include/core_cm0.h **** } SysTick_Type;
 455:Drivers/CMSIS/Include/core_cm0.h **** 
 456:Drivers/CMSIS/Include/core_cm0.h **** /* SysTick Control / Status Register Definitions */
 457:Drivers/CMSIS/Include/core_cm0.h **** #define SysTick_CTRL_COUNTFLAG_Pos         16U                                            /*!< SysT
 458:Drivers/CMSIS/Include/core_cm0.h **** #define SysTick_CTRL_COUNTFLAG_Msk         (1UL << SysTick_CTRL_COUNTFLAG_Pos)            /*!< SysT
 459:Drivers/CMSIS/Include/core_cm0.h **** 
 460:Drivers/CMSIS/Include/core_cm0.h **** #define SysTick_CTRL_CLKSOURCE_Pos          2U                                            /*!< SysT
 461:Drivers/CMSIS/Include/core_cm0.h **** #define SysTick_CTRL_CLKSOURCE_Msk         (1UL << SysTick_CTRL_CLKSOURCE_Pos)            /*!< SysT
 462:Drivers/CMSIS/Include/core_cm0.h **** 
 463:Drivers/CMSIS/Include/core_cm0.h **** #define SysTick_CTRL_TICKINT_Pos            1U                                            /*!< SysT
 464:Drivers/CMSIS/Include/core_cm0.h **** #define SysTick_CTRL_TICKINT_Msk           (1UL << SysTick_CTRL_TICKINT_Pos)              /*!< SysT
 465:Drivers/CMSIS/Include/core_cm0.h **** 
 466:Drivers/CMSIS/Include/core_cm0.h **** #define SysTick_CTRL_ENABLE_Pos             0U                                            /*!< SysT
 467:Drivers/CMSIS/Include/core_cm0.h **** #define SysTick_CTRL_ENABLE_Msk            (1UL /*<< SysTick_CTRL_ENABLE_Pos*/)           /*!< SysT
 468:Drivers/CMSIS/Include/core_cm0.h **** 
 469:Drivers/CMSIS/Include/core_cm0.h **** /* SysTick Reload Register Definitions */
 470:Drivers/CMSIS/Include/core_cm0.h **** #define SysTick_LOAD_RELOAD_Pos             0U                                            /*!< SysT
 471:Drivers/CMSIS/Include/core_cm0.h **** #define SysTick_LOAD_RELOAD_Msk            (0xFFFFFFUL /*<< SysTick_LOAD_RELOAD_Pos*/)    /*!< SysT
 472:Drivers/CMSIS/Include/core_cm0.h **** 
 473:Drivers/CMSIS/Include/core_cm0.h **** /* SysTick Current Register Definitions */
 474:Drivers/CMSIS/Include/core_cm0.h **** #define SysTick_VAL_CURRENT_Pos             0U                                            /*!< SysT
 475:Drivers/CMSIS/Include/core_cm0.h **** #define SysTick_VAL_CURRENT_Msk            (0xFFFFFFUL /*<< SysTick_VAL_CURRENT_Pos*/)    /*!< SysT
 476:Drivers/CMSIS/Include/core_cm0.h **** 
 477:Drivers/CMSIS/Include/core_cm0.h **** /* SysTick Calibration Register Definitions */
 478:Drivers/CMSIS/Include/core_cm0.h **** #define SysTick_CALIB_NOREF_Pos            31U                                            /*!< SysT
 479:Drivers/CMSIS/Include/core_cm0.h **** #define SysTick_CALIB_NOREF_Msk            (1UL << SysTick_CALIB_NOREF_Pos)               /*!< SysT
 480:Drivers/CMSIS/Include/core_cm0.h **** 
 481:Drivers/CMSIS/Include/core_cm0.h **** #define SysTick_CALIB_SKEW_Pos             30U                                            /*!< SysT
 482:Drivers/CMSIS/Include/core_cm0.h **** #define SysTick_CALIB_SKEW_Msk             (1UL << SysTick_CALIB_SKEW_Pos)                /*!< SysT
 483:Drivers/CMSIS/Include/core_cm0.h **** 
 484:Drivers/CMSIS/Include/core_cm0.h **** #define SysTick_CALIB_TENMS_Pos             0U                                            /*!< SysT
 485:Drivers/CMSIS/Include/core_cm0.h **** #define SysTick_CALIB_TENMS_Msk            (0xFFFFFFUL /*<< SysTick_CALIB_TENMS_Pos*/)    /*!< SysT
 486:Drivers/CMSIS/Include/core_cm0.h **** 
 487:Drivers/CMSIS/Include/core_cm0.h **** /*@} end of group CMSIS_SysTick */
 488:Drivers/CMSIS/Include/core_cm0.h **** 
 489:Drivers/CMSIS/Include/core_cm0.h **** 
 490:Drivers/CMSIS/Include/core_cm0.h **** /**
 491:Drivers/CMSIS/Include/core_cm0.h ****   \ingroup  CMSIS_core_register
 492:Drivers/CMSIS/Include/core_cm0.h ****   \defgroup CMSIS_CoreDebug       Core Debug Registers (CoreDebug)
 493:Drivers/CMSIS/Include/core_cm0.h ****   \brief    Cortex-M0 Core Debug Registers (DCB registers, SHCSR, and DFSR) are only accessible ove
 494:Drivers/CMSIS/Include/core_cm0.h ****             Therefore they are not covered by the Cortex-M0 header file.
 495:Drivers/CMSIS/Include/core_cm0.h ****   @{
 496:Drivers/CMSIS/Include/core_cm0.h ****  */
 497:Drivers/CMSIS/Include/core_cm0.h **** /*@} end of group CMSIS_CoreDebug */
 498:Drivers/CMSIS/Include/core_cm0.h **** 
 499:Drivers/CMSIS/Include/core_cm0.h **** 
 500:Drivers/CMSIS/Include/core_cm0.h **** /**
 501:Drivers/CMSIS/Include/core_cm0.h ****   \ingroup    CMSIS_core_register
 502:Drivers/CMSIS/Include/core_cm0.h ****   \defgroup   CMSIS_core_bitfield     Core register bit field macros
 503:Drivers/CMSIS/Include/core_cm0.h ****   \brief      Macros for use with bit field definitions (xxx_Pos, xxx_Msk).
 504:Drivers/CMSIS/Include/core_cm0.h ****   @{
 505:Drivers/CMSIS/Include/core_cm0.h ****  */
 506:Drivers/CMSIS/Include/core_cm0.h **** 
 507:Drivers/CMSIS/Include/core_cm0.h **** /**
ARM GAS  /var/folders/kr/g9ry2bg56g773797gdtkvvkw0000gn/T//ccqSoQTt.s 			page 24


 508:Drivers/CMSIS/Include/core_cm0.h ****   \brief   Mask and shift a bit field value for use in a register bit range.
 509:Drivers/CMSIS/Include/core_cm0.h ****   \param[in] field  Name of the register bit field.
 510:Drivers/CMSIS/Include/core_cm0.h ****   \param[in] value  Value of the bit field. This parameter is interpreted as an uint32_t type.
 511:Drivers/CMSIS/Include/core_cm0.h ****   \return           Masked and shifted value.
 512:Drivers/CMSIS/Include/core_cm0.h **** */
 513:Drivers/CMSIS/Include/core_cm0.h **** #define _VAL2FLD(field, value)    (((uint32_t)(value) << field ## _Pos) & field ## _Msk)
 514:Drivers/CMSIS/Include/core_cm0.h **** 
 515:Drivers/CMSIS/Include/core_cm0.h **** /**
 516:Drivers/CMSIS/Include/core_cm0.h ****   \brief     Mask and shift a register value to extract a bit filed value.
 517:Drivers/CMSIS/Include/core_cm0.h ****   \param[in] field  Name of the register bit field.
 518:Drivers/CMSIS/Include/core_cm0.h ****   \param[in] value  Value of register. This parameter is interpreted as an uint32_t type.
 519:Drivers/CMSIS/Include/core_cm0.h ****   \return           Masked and shifted bit field value.
 520:Drivers/CMSIS/Include/core_cm0.h **** */
 521:Drivers/CMSIS/Include/core_cm0.h **** #define _FLD2VAL(field, value)    (((uint32_t)(value) & field ## _Msk) >> field ## _Pos)
 522:Drivers/CMSIS/Include/core_cm0.h **** 
 523:Drivers/CMSIS/Include/core_cm0.h **** /*@} end of group CMSIS_core_bitfield */
 524:Drivers/CMSIS/Include/core_cm0.h **** 
 525:Drivers/CMSIS/Include/core_cm0.h **** 
 526:Drivers/CMSIS/Include/core_cm0.h **** /**
 527:Drivers/CMSIS/Include/core_cm0.h ****   \ingroup    CMSIS_core_register
 528:Drivers/CMSIS/Include/core_cm0.h ****   \defgroup   CMSIS_core_base     Core Definitions
 529:Drivers/CMSIS/Include/core_cm0.h ****   \brief      Definitions for base addresses, unions, and structures.
 530:Drivers/CMSIS/Include/core_cm0.h ****   @{
 531:Drivers/CMSIS/Include/core_cm0.h ****  */
 532:Drivers/CMSIS/Include/core_cm0.h **** 
 533:Drivers/CMSIS/Include/core_cm0.h **** /* Memory mapping of Core Hardware */
 534:Drivers/CMSIS/Include/core_cm0.h **** #define SCS_BASE            (0xE000E000UL)                            /*!< System Control Space Bas
 535:Drivers/CMSIS/Include/core_cm0.h **** #define SysTick_BASE        (SCS_BASE +  0x0010UL)                    /*!< SysTick Base Address */
 536:Drivers/CMSIS/Include/core_cm0.h **** #define NVIC_BASE           (SCS_BASE +  0x0100UL)                    /*!< NVIC Base Address */
 537:Drivers/CMSIS/Include/core_cm0.h **** #define SCB_BASE            (SCS_BASE +  0x0D00UL)                    /*!< System Control Block Bas
 538:Drivers/CMSIS/Include/core_cm0.h **** 
 539:Drivers/CMSIS/Include/core_cm0.h **** #define SCB                 ((SCB_Type       *)     SCB_BASE      )   /*!< SCB configuration struct
 540:Drivers/CMSIS/Include/core_cm0.h **** #define SysTick             ((SysTick_Type   *)     SysTick_BASE  )   /*!< SysTick configuration st
 541:Drivers/CMSIS/Include/core_cm0.h **** #define NVIC                ((NVIC_Type      *)     NVIC_BASE     )   /*!< NVIC configuration struc
 542:Drivers/CMSIS/Include/core_cm0.h **** 
 543:Drivers/CMSIS/Include/core_cm0.h **** 
 544:Drivers/CMSIS/Include/core_cm0.h **** /*@} */
 545:Drivers/CMSIS/Include/core_cm0.h **** 
 546:Drivers/CMSIS/Include/core_cm0.h **** 
 547:Drivers/CMSIS/Include/core_cm0.h **** 
 548:Drivers/CMSIS/Include/core_cm0.h **** /*******************************************************************************
 549:Drivers/CMSIS/Include/core_cm0.h ****  *                Hardware Abstraction Layer
 550:Drivers/CMSIS/Include/core_cm0.h ****   Core Function Interface contains:
 551:Drivers/CMSIS/Include/core_cm0.h ****   - Core NVIC Functions
 552:Drivers/CMSIS/Include/core_cm0.h ****   - Core SysTick Functions
 553:Drivers/CMSIS/Include/core_cm0.h ****   - Core Register Access Functions
 554:Drivers/CMSIS/Include/core_cm0.h ****  ******************************************************************************/
 555:Drivers/CMSIS/Include/core_cm0.h **** /**
 556:Drivers/CMSIS/Include/core_cm0.h ****   \defgroup CMSIS_Core_FunctionInterface Functions and Instructions Reference
 557:Drivers/CMSIS/Include/core_cm0.h **** */
 558:Drivers/CMSIS/Include/core_cm0.h **** 
 559:Drivers/CMSIS/Include/core_cm0.h **** 
 560:Drivers/CMSIS/Include/core_cm0.h **** 
 561:Drivers/CMSIS/Include/core_cm0.h **** /* ##########################   NVIC functions  #################################### */
 562:Drivers/CMSIS/Include/core_cm0.h **** /**
 563:Drivers/CMSIS/Include/core_cm0.h ****   \ingroup  CMSIS_Core_FunctionInterface
 564:Drivers/CMSIS/Include/core_cm0.h ****   \defgroup CMSIS_Core_NVICFunctions NVIC Functions
ARM GAS  /var/folders/kr/g9ry2bg56g773797gdtkvvkw0000gn/T//ccqSoQTt.s 			page 25


 565:Drivers/CMSIS/Include/core_cm0.h ****   \brief    Functions that manage interrupts and exceptions via the NVIC.
 566:Drivers/CMSIS/Include/core_cm0.h ****   @{
 567:Drivers/CMSIS/Include/core_cm0.h ****  */
 568:Drivers/CMSIS/Include/core_cm0.h **** 
 569:Drivers/CMSIS/Include/core_cm0.h **** #ifdef CMSIS_NVIC_VIRTUAL
 570:Drivers/CMSIS/Include/core_cm0.h ****   #ifndef CMSIS_NVIC_VIRTUAL_HEADER_FILE
 571:Drivers/CMSIS/Include/core_cm0.h ****     #define CMSIS_NVIC_VIRTUAL_HEADER_FILE "cmsis_nvic_virtual.h"
 572:Drivers/CMSIS/Include/core_cm0.h ****   #endif
 573:Drivers/CMSIS/Include/core_cm0.h ****   #include CMSIS_NVIC_VIRTUAL_HEADER_FILE
 574:Drivers/CMSIS/Include/core_cm0.h **** #else
 575:Drivers/CMSIS/Include/core_cm0.h ****   #define NVIC_SetPriorityGrouping    __NVIC_SetPriorityGrouping
 576:Drivers/CMSIS/Include/core_cm0.h ****   #define NVIC_GetPriorityGrouping    __NVIC_GetPriorityGrouping
 577:Drivers/CMSIS/Include/core_cm0.h ****   #define NVIC_EnableIRQ              __NVIC_EnableIRQ
 578:Drivers/CMSIS/Include/core_cm0.h ****   #define NVIC_GetEnableIRQ           __NVIC_GetEnableIRQ
 579:Drivers/CMSIS/Include/core_cm0.h ****   #define NVIC_DisableIRQ             __NVIC_DisableIRQ
 580:Drivers/CMSIS/Include/core_cm0.h ****   #define NVIC_GetPendingIRQ          __NVIC_GetPendingIRQ
 581:Drivers/CMSIS/Include/core_cm0.h ****   #define NVIC_SetPendingIRQ          __NVIC_SetPendingIRQ
 582:Drivers/CMSIS/Include/core_cm0.h ****   #define NVIC_ClearPendingIRQ        __NVIC_ClearPendingIRQ
 583:Drivers/CMSIS/Include/core_cm0.h **** /*#define NVIC_GetActive              __NVIC_GetActive             not available for Cortex-M0 */
 584:Drivers/CMSIS/Include/core_cm0.h ****   #define NVIC_SetPriority            __NVIC_SetPriority
 585:Drivers/CMSIS/Include/core_cm0.h ****   #define NVIC_GetPriority            __NVIC_GetPriority
 586:Drivers/CMSIS/Include/core_cm0.h ****   #define NVIC_SystemReset            __NVIC_SystemReset
 587:Drivers/CMSIS/Include/core_cm0.h **** #endif /* CMSIS_NVIC_VIRTUAL */
 588:Drivers/CMSIS/Include/core_cm0.h **** 
 589:Drivers/CMSIS/Include/core_cm0.h **** #ifdef CMSIS_VECTAB_VIRTUAL
 590:Drivers/CMSIS/Include/core_cm0.h ****   #ifndef CMSIS_VECTAB_VIRTUAL_HEADER_FILE
 591:Drivers/CMSIS/Include/core_cm0.h ****     #define CMSIS_VECTAB_VIRTUAL_HEADER_FILE "cmsis_vectab_virtual.h"
 592:Drivers/CMSIS/Include/core_cm0.h ****   #endif
 593:Drivers/CMSIS/Include/core_cm0.h ****   #include CMSIS_VECTAB_VIRTUAL_HEADER_FILE
 594:Drivers/CMSIS/Include/core_cm0.h **** #else
 595:Drivers/CMSIS/Include/core_cm0.h ****   #define NVIC_SetVector              __NVIC_SetVector
 596:Drivers/CMSIS/Include/core_cm0.h ****   #define NVIC_GetVector              __NVIC_GetVector
 597:Drivers/CMSIS/Include/core_cm0.h **** #endif  /* (CMSIS_VECTAB_VIRTUAL) */
 598:Drivers/CMSIS/Include/core_cm0.h **** 
 599:Drivers/CMSIS/Include/core_cm0.h **** #define NVIC_USER_IRQ_OFFSET          16
 600:Drivers/CMSIS/Include/core_cm0.h **** 
 601:Drivers/CMSIS/Include/core_cm0.h **** 
 602:Drivers/CMSIS/Include/core_cm0.h **** /* The following EXC_RETURN values are saved the LR on exception entry */
 603:Drivers/CMSIS/Include/core_cm0.h **** #define EXC_RETURN_HANDLER         (0xFFFFFFF1UL)     /* return to Handler mode, uses MSP after ret
 604:Drivers/CMSIS/Include/core_cm0.h **** #define EXC_RETURN_THREAD_MSP      (0xFFFFFFF9UL)     /* return to Thread mode, uses MSP after retu
 605:Drivers/CMSIS/Include/core_cm0.h **** #define EXC_RETURN_THREAD_PSP      (0xFFFFFFFDUL)     /* return to Thread mode, uses PSP after retu
 606:Drivers/CMSIS/Include/core_cm0.h **** 
 607:Drivers/CMSIS/Include/core_cm0.h **** 
 608:Drivers/CMSIS/Include/core_cm0.h **** /* Interrupt Priorities are WORD accessible only under Armv6-M                  */
 609:Drivers/CMSIS/Include/core_cm0.h **** /* The following MACROS handle generation of the register offset and byte masks */
 610:Drivers/CMSIS/Include/core_cm0.h **** #define _BIT_SHIFT(IRQn)         (  ((((uint32_t)(int32_t)(IRQn))         )      &  0x03UL) * 8UL)
 611:Drivers/CMSIS/Include/core_cm0.h **** #define _SHP_IDX(IRQn)           ( (((((uint32_t)(int32_t)(IRQn)) & 0x0FUL)-8UL) >>    2UL)      )
 612:Drivers/CMSIS/Include/core_cm0.h **** #define _IP_IDX(IRQn)            (   (((uint32_t)(int32_t)(IRQn))                >>    2UL)      )
 613:Drivers/CMSIS/Include/core_cm0.h **** 
 614:Drivers/CMSIS/Include/core_cm0.h **** #define __NVIC_SetPriorityGrouping(X) (void)(X)
 615:Drivers/CMSIS/Include/core_cm0.h **** #define __NVIC_GetPriorityGrouping()  (0U)
 616:Drivers/CMSIS/Include/core_cm0.h **** 
 617:Drivers/CMSIS/Include/core_cm0.h **** /**
 618:Drivers/CMSIS/Include/core_cm0.h ****   \brief   Enable Interrupt
 619:Drivers/CMSIS/Include/core_cm0.h ****   \details Enables a device specific interrupt in the NVIC interrupt controller.
 620:Drivers/CMSIS/Include/core_cm0.h ****   \param [in]      IRQn  Device specific interrupt number.
 621:Drivers/CMSIS/Include/core_cm0.h ****   \note    IRQn must not be negative.
ARM GAS  /var/folders/kr/g9ry2bg56g773797gdtkvvkw0000gn/T//ccqSoQTt.s 			page 26


 622:Drivers/CMSIS/Include/core_cm0.h ****  */
 623:Drivers/CMSIS/Include/core_cm0.h **** __STATIC_INLINE void __NVIC_EnableIRQ(IRQn_Type IRQn)
 517              		.loc 2 623 22 view .LVU149
 518              	.LBB9:
 624:Drivers/CMSIS/Include/core_cm0.h **** {
 625:Drivers/CMSIS/Include/core_cm0.h ****   if ((int32_t)(IRQn) >= 0)
 519              		.loc 2 625 3 view .LVU150
 626:Drivers/CMSIS/Include/core_cm0.h ****   {
 627:Drivers/CMSIS/Include/core_cm0.h ****     NVIC->ISER[0U] = (uint32_t)(1UL << (((uint32_t)IRQn) & 0x1FUL));
 520              		.loc 2 627 5 view .LVU151
 521              		.loc 2 627 20 is_stmt 0 view .LVU152
 522 006e 134B     		ldr	r3, .L20+16
 523 0070 2022     		movs	r2, #32
 524 0072 1A60     		str	r2, [r3]
 525              	.LVL14:
 526              		.loc 2 627 20 view .LVU153
 527              	.LBE9:
 528              	.LBE8:
 150:Src/main.c    ****   //Change Systick priority
 529              		.loc 1 150 3 is_stmt 1 view .LVU154
 530              	.LBB10:
 531              	.LBI10:
 628:Drivers/CMSIS/Include/core_cm0.h ****   }
 629:Drivers/CMSIS/Include/core_cm0.h **** }
 630:Drivers/CMSIS/Include/core_cm0.h **** 
 631:Drivers/CMSIS/Include/core_cm0.h **** 
 632:Drivers/CMSIS/Include/core_cm0.h **** /**
 633:Drivers/CMSIS/Include/core_cm0.h ****   \brief   Get Interrupt Enable status
 634:Drivers/CMSIS/Include/core_cm0.h ****   \details Returns a device specific interrupt enable status from the NVIC interrupt controller.
 635:Drivers/CMSIS/Include/core_cm0.h ****   \param [in]      IRQn  Device specific interrupt number.
 636:Drivers/CMSIS/Include/core_cm0.h ****   \return             0  Interrupt is not enabled.
 637:Drivers/CMSIS/Include/core_cm0.h ****   \return             1  Interrupt is enabled.
 638:Drivers/CMSIS/Include/core_cm0.h ****   \note    IRQn must not be negative.
 639:Drivers/CMSIS/Include/core_cm0.h ****  */
 640:Drivers/CMSIS/Include/core_cm0.h **** __STATIC_INLINE uint32_t __NVIC_GetEnableIRQ(IRQn_Type IRQn)
 641:Drivers/CMSIS/Include/core_cm0.h **** {
 642:Drivers/CMSIS/Include/core_cm0.h ****   if ((int32_t)(IRQn) >= 0)
 643:Drivers/CMSIS/Include/core_cm0.h ****   {
 644:Drivers/CMSIS/Include/core_cm0.h ****     return((uint32_t)(((NVIC->ISER[0U] & (1UL << (((uint32_t)IRQn) & 0x1FUL))) != 0UL) ? 1UL : 0UL)
 645:Drivers/CMSIS/Include/core_cm0.h ****   }
 646:Drivers/CMSIS/Include/core_cm0.h ****   else
 647:Drivers/CMSIS/Include/core_cm0.h ****   {
 648:Drivers/CMSIS/Include/core_cm0.h ****     return(0U);
 649:Drivers/CMSIS/Include/core_cm0.h ****   }
 650:Drivers/CMSIS/Include/core_cm0.h **** }
 651:Drivers/CMSIS/Include/core_cm0.h **** 
 652:Drivers/CMSIS/Include/core_cm0.h **** 
 653:Drivers/CMSIS/Include/core_cm0.h **** /**
 654:Drivers/CMSIS/Include/core_cm0.h ****   \brief   Disable Interrupt
 655:Drivers/CMSIS/Include/core_cm0.h ****   \details Disables a device specific interrupt in the NVIC interrupt controller.
 656:Drivers/CMSIS/Include/core_cm0.h ****   \param [in]      IRQn  Device specific interrupt number.
 657:Drivers/CMSIS/Include/core_cm0.h ****   \note    IRQn must not be negative.
 658:Drivers/CMSIS/Include/core_cm0.h ****  */
 659:Drivers/CMSIS/Include/core_cm0.h **** __STATIC_INLINE void __NVIC_DisableIRQ(IRQn_Type IRQn)
 660:Drivers/CMSIS/Include/core_cm0.h **** {
 661:Drivers/CMSIS/Include/core_cm0.h ****   if ((int32_t)(IRQn) >= 0)
 662:Drivers/CMSIS/Include/core_cm0.h ****   {
ARM GAS  /var/folders/kr/g9ry2bg56g773797gdtkvvkw0000gn/T//ccqSoQTt.s 			page 27


 663:Drivers/CMSIS/Include/core_cm0.h ****     NVIC->ICER[0U] = (uint32_t)(1UL << (((uint32_t)IRQn) & 0x1FUL));
 664:Drivers/CMSIS/Include/core_cm0.h ****     __DSB();
 665:Drivers/CMSIS/Include/core_cm0.h ****     __ISB();
 666:Drivers/CMSIS/Include/core_cm0.h ****   }
 667:Drivers/CMSIS/Include/core_cm0.h **** }
 668:Drivers/CMSIS/Include/core_cm0.h **** 
 669:Drivers/CMSIS/Include/core_cm0.h **** 
 670:Drivers/CMSIS/Include/core_cm0.h **** /**
 671:Drivers/CMSIS/Include/core_cm0.h ****   \brief   Get Pending Interrupt
 672:Drivers/CMSIS/Include/core_cm0.h ****   \details Reads the NVIC pending register and returns the pending bit for the specified device spe
 673:Drivers/CMSIS/Include/core_cm0.h ****   \param [in]      IRQn  Device specific interrupt number.
 674:Drivers/CMSIS/Include/core_cm0.h ****   \return             0  Interrupt status is not pending.
 675:Drivers/CMSIS/Include/core_cm0.h ****   \return             1  Interrupt status is pending.
 676:Drivers/CMSIS/Include/core_cm0.h ****   \note    IRQn must not be negative.
 677:Drivers/CMSIS/Include/core_cm0.h ****  */
 678:Drivers/CMSIS/Include/core_cm0.h **** __STATIC_INLINE uint32_t __NVIC_GetPendingIRQ(IRQn_Type IRQn)
 679:Drivers/CMSIS/Include/core_cm0.h **** {
 680:Drivers/CMSIS/Include/core_cm0.h ****   if ((int32_t)(IRQn) >= 0)
 681:Drivers/CMSIS/Include/core_cm0.h ****   {
 682:Drivers/CMSIS/Include/core_cm0.h ****     return((uint32_t)(((NVIC->ISPR[0U] & (1UL << (((uint32_t)IRQn) & 0x1FUL))) != 0UL) ? 1UL : 0UL)
 683:Drivers/CMSIS/Include/core_cm0.h ****   }
 684:Drivers/CMSIS/Include/core_cm0.h ****   else
 685:Drivers/CMSIS/Include/core_cm0.h ****   {
 686:Drivers/CMSIS/Include/core_cm0.h ****     return(0U);
 687:Drivers/CMSIS/Include/core_cm0.h ****   }
 688:Drivers/CMSIS/Include/core_cm0.h **** }
 689:Drivers/CMSIS/Include/core_cm0.h **** 
 690:Drivers/CMSIS/Include/core_cm0.h **** 
 691:Drivers/CMSIS/Include/core_cm0.h **** /**
 692:Drivers/CMSIS/Include/core_cm0.h ****   \brief   Set Pending Interrupt
 693:Drivers/CMSIS/Include/core_cm0.h ****   \details Sets the pending bit of a device specific interrupt in the NVIC pending register.
 694:Drivers/CMSIS/Include/core_cm0.h ****   \param [in]      IRQn  Device specific interrupt number.
 695:Drivers/CMSIS/Include/core_cm0.h ****   \note    IRQn must not be negative.
 696:Drivers/CMSIS/Include/core_cm0.h ****  */
 697:Drivers/CMSIS/Include/core_cm0.h **** __STATIC_INLINE void __NVIC_SetPendingIRQ(IRQn_Type IRQn)
 698:Drivers/CMSIS/Include/core_cm0.h **** {
 699:Drivers/CMSIS/Include/core_cm0.h ****   if ((int32_t)(IRQn) >= 0)
 700:Drivers/CMSIS/Include/core_cm0.h ****   {
 701:Drivers/CMSIS/Include/core_cm0.h ****     NVIC->ISPR[0U] = (uint32_t)(1UL << (((uint32_t)IRQn) & 0x1FUL));
 702:Drivers/CMSIS/Include/core_cm0.h ****   }
 703:Drivers/CMSIS/Include/core_cm0.h **** }
 704:Drivers/CMSIS/Include/core_cm0.h **** 
 705:Drivers/CMSIS/Include/core_cm0.h **** 
 706:Drivers/CMSIS/Include/core_cm0.h **** /**
 707:Drivers/CMSIS/Include/core_cm0.h ****   \brief   Clear Pending Interrupt
 708:Drivers/CMSIS/Include/core_cm0.h ****   \details Clears the pending bit of a device specific interrupt in the NVIC pending register.
 709:Drivers/CMSIS/Include/core_cm0.h ****   \param [in]      IRQn  Device specific interrupt number.
 710:Drivers/CMSIS/Include/core_cm0.h ****   \note    IRQn must not be negative.
 711:Drivers/CMSIS/Include/core_cm0.h ****  */
 712:Drivers/CMSIS/Include/core_cm0.h **** __STATIC_INLINE void __NVIC_ClearPendingIRQ(IRQn_Type IRQn)
 713:Drivers/CMSIS/Include/core_cm0.h **** {
 714:Drivers/CMSIS/Include/core_cm0.h ****   if ((int32_t)(IRQn) >= 0)
 715:Drivers/CMSIS/Include/core_cm0.h ****   {
 716:Drivers/CMSIS/Include/core_cm0.h ****     NVIC->ICPR[0U] = (uint32_t)(1UL << (((uint32_t)IRQn) & 0x1FUL));
 717:Drivers/CMSIS/Include/core_cm0.h ****   }
 718:Drivers/CMSIS/Include/core_cm0.h **** }
 719:Drivers/CMSIS/Include/core_cm0.h **** 
ARM GAS  /var/folders/kr/g9ry2bg56g773797gdtkvvkw0000gn/T//ccqSoQTt.s 			page 28


 720:Drivers/CMSIS/Include/core_cm0.h **** 
 721:Drivers/CMSIS/Include/core_cm0.h **** /**
 722:Drivers/CMSIS/Include/core_cm0.h ****   \brief   Set Interrupt Priority
 723:Drivers/CMSIS/Include/core_cm0.h ****   \details Sets the priority of a device specific interrupt or a processor exception.
 724:Drivers/CMSIS/Include/core_cm0.h ****            The interrupt number can be positive to specify a device specific interrupt,
 725:Drivers/CMSIS/Include/core_cm0.h ****            or negative to specify a processor exception.
 726:Drivers/CMSIS/Include/core_cm0.h ****   \param [in]      IRQn  Interrupt number.
 727:Drivers/CMSIS/Include/core_cm0.h ****   \param [in]  priority  Priority to set.
 728:Drivers/CMSIS/Include/core_cm0.h ****   \note    The priority cannot be set for every processor exception.
 729:Drivers/CMSIS/Include/core_cm0.h ****  */
 730:Drivers/CMSIS/Include/core_cm0.h **** __STATIC_INLINE void __NVIC_SetPriority(IRQn_Type IRQn, uint32_t priority)
 532              		.loc 2 730 22 view .LVU155
 533              	.LBB11:
 731:Drivers/CMSIS/Include/core_cm0.h **** {
 732:Drivers/CMSIS/Include/core_cm0.h ****   if ((int32_t)(IRQn) >= 0)
 534              		.loc 2 732 3 view .LVU156
 733:Drivers/CMSIS/Include/core_cm0.h ****   {
 734:Drivers/CMSIS/Include/core_cm0.h ****     NVIC->IP[_IP_IDX(IRQn)]  = ((uint32_t)(NVIC->IP[_IP_IDX(IRQn)]  & ~(0xFFUL << _BIT_SHIFT(IRQn))
 535              		.loc 2 734 5 view .LVU157
 536              		.loc 2 734 52 is_stmt 0 view .LVU158
 537 0074 C120     		movs	r0, #193
 538 0076 8000     		lsls	r0, r0, #2
 539 0078 1958     		ldr	r1, [r3, r0]
 540              		.loc 2 734 33 view .LVU159
 541 007a 114A     		ldr	r2, .L20+20
 542 007c 1140     		ands	r1, r2
 543              		.loc 2 734 102 view .LVU160
 544 007e C022     		movs	r2, #192
 545 0080 1202     		lsls	r2, r2, #8
 546 0082 0A43     		orrs	r2, r1
 547              		.loc 2 734 30 view .LVU161
 548 0084 1A50     		str	r2, [r3, r0]
 549              	.LVL15:
 550              		.loc 2 734 30 view .LVU162
 551              	.LBE11:
 552              	.LBE10:
 152:Src/main.c    **** 
 553              		.loc 1 152 3 is_stmt 1 view .LVU163
 554              	.LBB12:
 555              	.LBI12:
 730:Drivers/CMSIS/Include/core_cm0.h **** {
 556              		.loc 2 730 22 view .LVU164
 557              	.LBB13:
 732:Drivers/CMSIS/Include/core_cm0.h ****   {
 558              		.loc 2 732 3 view .LVU165
 735:Drivers/CMSIS/Include/core_cm0.h ****        (((priority << (8U - __NVIC_PRIO_BITS)) & (uint32_t)0xFFUL) << _BIT_SHIFT(IRQn)));
 736:Drivers/CMSIS/Include/core_cm0.h ****   }
 737:Drivers/CMSIS/Include/core_cm0.h ****   else
 738:Drivers/CMSIS/Include/core_cm0.h ****   {
 739:Drivers/CMSIS/Include/core_cm0.h ****     SCB->SHP[_SHP_IDX(IRQn)] = ((uint32_t)(SCB->SHP[_SHP_IDX(IRQn)] & ~(0xFFUL << _BIT_SHIFT(IRQn))
 559              		.loc 2 739 5 view .LVU166
 560              		.loc 2 739 52 is_stmt 0 view .LVU167
 561 0086 0F49     		ldr	r1, .L20+24
 562 0088 0B6A     		ldr	r3, [r1, #32]
 563              		.loc 2 739 33 view .LVU168
 564 008a 1B02     		lsls	r3, r3, #8
 565 008c 1B0A     		lsrs	r3, r3, #8
ARM GAS  /var/folders/kr/g9ry2bg56g773797gdtkvvkw0000gn/T//ccqSoQTt.s 			page 29


 566              		.loc 2 739 102 view .LVU169
 567 008e 8022     		movs	r2, #128
 568 0090 1206     		lsls	r2, r2, #24
 569 0092 1343     		orrs	r3, r2
 570              		.loc 2 739 30 view .LVU170
 571 0094 0B62     		str	r3, [r1, #32]
 572              	.LVL16:
 573              	.L19:
 574              		.loc 2 739 30 view .LVU171
 575              	.LBE13:
 576              	.LBE12:
 154:Src/main.c    ****   {
 577              		.loc 1 154 3 is_stmt 1 view .LVU172
 157:Src/main.c    ****     //Toggle red LED
 578              		.loc 1 157 5 view .LVU173
 579 0096 FA20     		movs	r0, #250
 580 0098 4000     		lsls	r0, r0, #1
 581 009a FFF7FEFF 		bl	HAL_Delay
 582              	.LVL17:
 159:Src/main.c    ****   }
 583              		.loc 1 159 5 discriminator 1 view .LVU174
 159:Src/main.c    ****   }
 584              		.loc 1 159 10 is_stmt 0 discriminator 1 view .LVU175
 585 009e 044A     		ldr	r2, .L20+4
 586 00a0 5369     		ldr	r3, [r2, #20]
 159:Src/main.c    ****   }
 587              		.loc 1 159 16 discriminator 1 view .LVU176
 588 00a2 4021     		movs	r1, #64
 589 00a4 4B40     		eors	r3, r1
 590 00a6 5361     		str	r3, [r2, #20]
 154:Src/main.c    ****   {
 591              		.loc 1 154 9 is_stmt 1 view .LVU177
 592 00a8 F5E7     		b	.L19
 593              	.L21:
 594 00aa C046     		.align	2
 595              	.L20:
 596 00ac 00100240 		.word	1073876992
 597 00b0 00080048 		.word	1207961600
 598 00b4 00040140 		.word	1073808384
 599 00b8 00000140 		.word	1073807360
 600 00bc 00E100E0 		.word	-536813312
 601 00c0 FF00FFFF 		.word	-65281
 602 00c4 00ED00E0 		.word	-536810240
 603              		.cfi_endproc
 604              	.LFE42:
 606              		.text
 607              	.Letext0:
 608              		.file 3 "Drivers/CMSIS/Device/ST/STM32F0xx/Include/stm32f072xb.h"
 609              		.file 4 "/Applications/ArmGNUToolchain/13.2.Rel1/arm-none-eabi/arm-none-eabi/include/machine/_defa
 610              		.file 5 "/Applications/ArmGNUToolchain/13.2.Rel1/arm-none-eabi/arm-none-eabi/include/sys/_stdint.h
 611              		.file 6 "Drivers/STM32F0xx_HAL_Driver/Inc/stm32f0xx_hal_def.h"
 612              		.file 7 "Drivers/STM32F0xx_HAL_Driver/Inc/stm32f0xx_hal_rcc.h"
 613              		.file 8 "Drivers/STM32F0xx_HAL_Driver/Inc/stm32f0xx_hal_cortex.h"
 614              		.file 9 "Drivers/STM32F0xx_HAL_Driver/Inc/stm32f0xx_hal.h"
ARM GAS  /var/folders/kr/g9ry2bg56g773797gdtkvvkw0000gn/T//ccqSoQTt.s 			page 30

